
C:\Users\ericw\AppData\Local\Temp\arduino_build_985276/pidog2.ino.elf:     file format elf32-avr


Disassembly of section .text:

00000000 <__vectors>:
__vectors():
       0:	2d c0       	rjmp	.+90     	; 0x5c <__ctors_end>
       2:	51 c0       	rjmp	.+162    	; 0xa6 <__bad_interrupt>
       4:	50 c0       	rjmp	.+160    	; 0xa6 <__bad_interrupt>
       6:	30 c6       	rjmp	.+3168   	; 0xc68 <__vector_3>
       8:	75 c6       	rjmp	.+3306   	; 0xcf4 <__vector_4>
       a:	4d c0       	rjmp	.+154    	; 0xa6 <__bad_interrupt>
       c:	4c c0       	rjmp	.+152    	; 0xa6 <__bad_interrupt>
       e:	4b c0       	rjmp	.+150    	; 0xa6 <__bad_interrupt>
      10:	4a c0       	rjmp	.+148    	; 0xa6 <__bad_interrupt>
      12:	49 c0       	rjmp	.+146    	; 0xa6 <__bad_interrupt>
      14:	48 c0       	rjmp	.+144    	; 0xa6 <__bad_interrupt>
      16:	6f c5       	rjmp	.+2782   	; 0xaf6 <__vector_11>
      18:	46 c0       	rjmp	.+140    	; 0xa6 <__bad_interrupt>
      1a:	45 c0       	rjmp	.+138    	; 0xa6 <__bad_interrupt>
      1c:	44 c0       	rjmp	.+136    	; 0xa6 <__bad_interrupt>
      1e:	43 c0       	rjmp	.+134    	; 0xa6 <__bad_interrupt>
      20:	b4 c5       	rjmp	.+2920   	; 0xb8a <__vector_16>

00000022 <__trampolines_end>:
__trampolines_start():
      22:	00 00       	nop
      24:	3a 00       	.word	0x003a	; ????
      26:	37 00       	.word	0x0037	; ????

00000028 <port_to_output_PGM>:
      28:	00 00 3b 00 38 00                                   ..;.8.

0000002e <digital_pin_to_timer_PGM>:
      2e:	00 00 01 02 03 04 00 00 00 00 00 00 00              .............

0000003b <port_to_input_PGM>:
      3b:	00 00 39 00 36 00                                   ..9.6.

00000041 <digital_pin_to_port_PGM>:
      41:	02 02 02 01 01 01 01 01 01 01 01 02                 ............

0000004d <digital_pin_to_bit_mask_PGM>:
      4d:	01 02 04 80 40 20 10 08 04 02 01 08 00              ....@ .......

0000005a <__ctors_start>:
__ctors_start():
      5a:	ca 07       	cpc	r28, r26

0000005c <__ctors_end>:
__dtors_end():
      5c:	11 24       	eor	r1, r1
      5e:	1f be       	out	0x3f, r1	; 63
      60:	cf e5       	ldi	r28, 0x5F	; 95
      62:	d2 e0       	ldi	r29, 0x02	; 2
      64:	de bf       	out	0x3e, r29	; 62
      66:	cd bf       	out	0x3d, r28	; 61

00000068 <__do_clear_bss>:
__do_clear_bss():
/home/jenkins-mingw32/workspace/avr-gcc-staging/label/Ubuntu14.04x64-mingw32/gcc-build/avr/avr25/libgcc/../../../../gcc/libgcc/config/avr/lib1funcs.S:2441
      68:	21 e0       	ldi	r18, 0x01	; 1
/home/jenkins-mingw32/workspace/avr-gcc-staging/label/Ubuntu14.04x64-mingw32/gcc-build/avr/avr25/libgcc/../../../../gcc/libgcc/config/avr/lib1funcs.S:2442
      6a:	a6 eb       	ldi	r26, 0xB6	; 182
/home/jenkins-mingw32/workspace/avr-gcc-staging/label/Ubuntu14.04x64-mingw32/gcc-build/avr/avr25/libgcc/../../../../gcc/libgcc/config/avr/lib1funcs.S:2443
      6c:	b0 e0       	ldi	r27, 0x00	; 0
/home/jenkins-mingw32/workspace/avr-gcc-staging/label/Ubuntu14.04x64-mingw32/gcc-build/avr/avr25/libgcc/../../../../gcc/libgcc/config/avr/lib1funcs.S:2444
      6e:	01 c0       	rjmp	.+2      	; 0x72 <.do_clear_bss_start>

00000070 <.do_clear_bss_loop>:
/home/jenkins-mingw32/workspace/avr-gcc-staging/label/Ubuntu14.04x64-mingw32/gcc-build/avr/avr25/libgcc/../../../../gcc/libgcc/config/avr/lib1funcs.S:2446
      70:	1d 92       	st	X+, r1

00000072 <.do_clear_bss_start>:
/home/jenkins-mingw32/workspace/avr-gcc-staging/label/Ubuntu14.04x64-mingw32/gcc-build/avr/avr25/libgcc/../../../../gcc/libgcc/config/avr/lib1funcs.S:2448
      72:	a3 34       	cpi	r26, 0x43	; 67
/home/jenkins-mingw32/workspace/avr-gcc-staging/label/Ubuntu14.04x64-mingw32/gcc-build/avr/avr25/libgcc/../../../../gcc/libgcc/config/avr/lib1funcs.S:2449
      74:	b2 07       	cpc	r27, r18
/home/jenkins-mingw32/workspace/avr-gcc-staging/label/Ubuntu14.04x64-mingw32/gcc-build/avr/avr25/libgcc/../../../../gcc/libgcc/config/avr/lib1funcs.S:2450
      76:	e1 f7       	brne	.-8      	; 0x70 <.do_clear_bss_loop>

00000078 <__do_copy_data>:
__do_copy_data():
/home/jenkins-mingw32/workspace/avr-gcc-staging/label/Ubuntu14.04x64-mingw32/gcc-build/avr/avr25/libgcc/../../../../gcc/libgcc/config/avr/lib1funcs.S:2409
      78:	10 e0       	ldi	r17, 0x00	; 0
/home/jenkins-mingw32/workspace/avr-gcc-staging/label/Ubuntu14.04x64-mingw32/gcc-build/avr/avr25/libgcc/../../../../gcc/libgcc/config/avr/lib1funcs.S:2410
      7a:	a0 e6       	ldi	r26, 0x60	; 96
/home/jenkins-mingw32/workspace/avr-gcc-staging/label/Ubuntu14.04x64-mingw32/gcc-build/avr/avr25/libgcc/../../../../gcc/libgcc/config/avr/lib1funcs.S:2411
      7c:	b0 e0       	ldi	r27, 0x00	; 0
/home/jenkins-mingw32/workspace/avr-gcc-staging/label/Ubuntu14.04x64-mingw32/gcc-build/avr/avr25/libgcc/../../../../gcc/libgcc/config/avr/lib1funcs.S:2412
      7e:	ec e7       	ldi	r30, 0x7C	; 124
/home/jenkins-mingw32/workspace/avr-gcc-staging/label/Ubuntu14.04x64-mingw32/gcc-build/avr/avr25/libgcc/../../../../gcc/libgcc/config/avr/lib1funcs.S:2413
      80:	f0 e1       	ldi	r31, 0x10	; 16
/home/jenkins-mingw32/workspace/avr-gcc-staging/label/Ubuntu14.04x64-mingw32/gcc-build/avr/avr25/libgcc/../../../../gcc/libgcc/config/avr/lib1funcs.S:2414
      82:	02 c0       	rjmp	.+4      	; 0x88 <__do_copy_data+0x10>
/home/jenkins-mingw32/workspace/avr-gcc-staging/label/Ubuntu14.04x64-mingw32/gcc-build/avr/avr25/libgcc/../../../../gcc/libgcc/config/avr/lib1funcs.S:2417
      84:	05 90       	lpm	r0, Z+
/home/jenkins-mingw32/workspace/avr-gcc-staging/label/Ubuntu14.04x64-mingw32/gcc-build/avr/avr25/libgcc/../../../../gcc/libgcc/config/avr/lib1funcs.S:2422
      86:	0d 92       	st	X+, r0
/home/jenkins-mingw32/workspace/avr-gcc-staging/label/Ubuntu14.04x64-mingw32/gcc-build/avr/avr25/libgcc/../../../../gcc/libgcc/config/avr/lib1funcs.S:2424
      88:	a6 3b       	cpi	r26, 0xB6	; 182
/home/jenkins-mingw32/workspace/avr-gcc-staging/label/Ubuntu14.04x64-mingw32/gcc-build/avr/avr25/libgcc/../../../../gcc/libgcc/config/avr/lib1funcs.S:2425
      8a:	b1 07       	cpc	r27, r17
/home/jenkins-mingw32/workspace/avr-gcc-staging/label/Ubuntu14.04x64-mingw32/gcc-build/avr/avr25/libgcc/../../../../gcc/libgcc/config/avr/lib1funcs.S:2426
      8c:	d9 f7       	brne	.-10     	; 0x84 <__do_copy_data+0xc>

0000008e <__do_global_ctors>:
__do_global_ctors():
/home/jenkins-mingw32/workspace/avr-gcc-staging/label/Ubuntu14.04x64-mingw32/gcc-build/avr/avr25/libgcc/../../../../gcc/libgcc/config/avr/lib1funcs.S:2466
      8e:	10 e0       	ldi	r17, 0x00	; 0
/home/jenkins-mingw32/workspace/avr-gcc-staging/label/Ubuntu14.04x64-mingw32/gcc-build/avr/avr25/libgcc/../../../../gcc/libgcc/config/avr/lib1funcs.S:2467
      90:	ce e2       	ldi	r28, 0x2E	; 46
/home/jenkins-mingw32/workspace/avr-gcc-staging/label/Ubuntu14.04x64-mingw32/gcc-build/avr/avr25/libgcc/../../../../gcc/libgcc/config/avr/lib1funcs.S:2468
      92:	d0 e0       	ldi	r29, 0x00	; 0
/home/jenkins-mingw32/workspace/avr-gcc-staging/label/Ubuntu14.04x64-mingw32/gcc-build/avr/avr25/libgcc/../../../../gcc/libgcc/config/avr/lib1funcs.S:2472
      94:	03 c0       	rjmp	.+6      	; 0x9c <__do_global_ctors+0xe>
/home/jenkins-mingw32/workspace/avr-gcc-staging/label/Ubuntu14.04x64-mingw32/gcc-build/avr/avr25/libgcc/../../../../gcc/libgcc/config/avr/lib1funcs.S:2474
      96:	21 97       	sbiw	r28, 0x01	; 1
/home/jenkins-mingw32/workspace/avr-gcc-staging/label/Ubuntu14.04x64-mingw32/gcc-build/avr/avr25/libgcc/../../../../gcc/libgcc/config/avr/lib1funcs.S:2480
      98:	fe 01       	movw	r30, r28
/home/jenkins-mingw32/workspace/avr-gcc-staging/label/Ubuntu14.04x64-mingw32/gcc-build/avr/avr25/libgcc/../../../../gcc/libgcc/config/avr/lib1funcs.S:2481
      9a:	e8 d7       	rcall	.+4048   	; 0x106c <__tablejump2__>
/home/jenkins-mingw32/workspace/avr-gcc-staging/label/Ubuntu14.04x64-mingw32/gcc-build/avr/avr25/libgcc/../../../../gcc/libgcc/config/avr/lib1funcs.S:2483
      9c:	cd 32       	cpi	r28, 0x2D	; 45
/home/jenkins-mingw32/workspace/avr-gcc-staging/label/Ubuntu14.04x64-mingw32/gcc-build/avr/avr25/libgcc/../../../../gcc/libgcc/config/avr/lib1funcs.S:2484
      9e:	d1 07       	cpc	r29, r17
/home/jenkins-mingw32/workspace/avr-gcc-staging/label/Ubuntu14.04x64-mingw32/gcc-build/avr/avr25/libgcc/../../../../gcc/libgcc/config/avr/lib1funcs.S:2489
      a0:	d1 f7       	brne	.-12     	; 0x96 <__do_global_ctors+0x8>
      a2:	4d d6       	rcall	.+3226   	; 0xd3e <main>
      a4:	e9 c7       	rjmp	.+4050   	; 0x1078 <_exit>

000000a6 <__bad_interrupt>:
__vector_1():
      a6:	1c c6       	rjmp	.+3128   	; 0xce0 <__vector_default>

000000a8 <digitalRead.constprop.0>:
digitalRead.constprop.0():
C:\Users\ericw\AppData\Local\Arduino15\packages\ATTinyCore\hardware\avr\1.4.1\cores\tiny/wiring_digital.c:168

int digitalRead(uint8_t pin)
{
  if (pin&128) {pin=analogInputToDigitalPin((pin&127));}
  //uint8_t timer = digitalPinToTimer(pin);
  uint8_t bit = digitalPinToBitMask(pin);
      a8:	ed e4       	ldi	r30, 0x4D	; 77
      aa:	f0 e0       	ldi	r31, 0x00	; 0
      ac:	84 91       	lpm	r24, Z
C:\Users\ericw\AppData\Local\Arduino15\packages\ATTinyCore\hardware\avr\1.4.1\cores\tiny/wiring_digital.c:169
  uint8_t port = digitalPinToPort(pin);
      ae:	e1 e4       	ldi	r30, 0x41	; 65
      b0:	f0 e0       	ldi	r31, 0x00	; 0
      b2:	e4 91       	lpm	r30, Z
C:\Users\ericw\AppData\Local\Arduino15\packages\ATTinyCore\hardware\avr\1.4.1\cores\tiny/wiring_digital.c:171

  if (port == NOT_A_PIN) return LOW;
      b4:	ee 23       	and	r30, r30
      b6:	71 f0       	breq	.+28     	; 0xd4 <digitalRead.constprop.0+0x2c>
C:\Users\ericw\AppData\Local\Arduino15\packages\ATTinyCore\hardware\avr\1.4.1\cores\tiny/wiring_digital.c:179
  // "read" should *NEVER* change the behavior of the thing you're using it on.
  // That's why it's called "read" not "write". As an added bonus, sets the
  // stage for auto-fast-digitalRead() for compile time known pins.
  // if (timer != NOT_ON_TIMER) turnOffPWM(timer);

  if (*portInputRegister(port) & bit) return HIGH;
      b8:	f0 e0       	ldi	r31, 0x00	; 0
      ba:	ee 0f       	add	r30, r30
      bc:	ff 1f       	adc	r31, r31
      be:	e5 5c       	subi	r30, 0xC5	; 197
      c0:	ff 4f       	sbci	r31, 0xFF	; 255
      c2:	a5 91       	lpm	r26, Z+
      c4:	b4 91       	lpm	r27, Z
      c6:	ec 91       	ld	r30, X
      c8:	e8 23       	and	r30, r24
      ca:	81 e0       	ldi	r24, 0x01	; 1
      cc:	90 e0       	ldi	r25, 0x00	; 0
      ce:	21 f4       	brne	.+8      	; 0xd8 <digitalRead.constprop.0+0x30>
      d0:	80 e0       	ldi	r24, 0x00	; 0
      d2:	08 95       	ret
C:\Users\ericw\AppData\Local\Arduino15\packages\ATTinyCore\hardware\avr\1.4.1\cores\tiny/wiring_digital.c:171
  if (pin&128) {pin=analogInputToDigitalPin((pin&127));}
  //uint8_t timer = digitalPinToTimer(pin);
  uint8_t bit = digitalPinToBitMask(pin);
  uint8_t port = digitalPinToPort(pin);

  if (port == NOT_A_PIN) return LOW;
      d4:	80 e0       	ldi	r24, 0x00	; 0
      d6:	90 e0       	ldi	r25, 0x00	; 0
C:\Users\ericw\AppData\Local\Arduino15\packages\ATTinyCore\hardware\avr\1.4.1\cores\tiny/wiring_digital.c:181
  // stage for auto-fast-digitalRead() for compile time known pins.
  // if (timer != NOT_ON_TIMER) turnOffPWM(timer);

  if (*portInputRegister(port) & bit) return HIGH;
  return LOW;
}
      d8:	08 95       	ret

000000da <handleCommand(unsigned char, unsigned long)>:
_Z13handleCommandhm():
C:\Users\ericw\Documents\GitHub\pidog2\attiny84_sketch\pidog2/pidog2.ino:74
typedef regfile_c<reg_t, rf_size> myregfile_c;

myregfile_c rf;
adcReader_c <myregfile_c, 1, 16> adcreader(rf);

reg_t handleCommand(uint8_t cmd, reg_t indata) {
      da:	cf 92       	push	r12
      dc:	df 92       	push	r13
      de:	ef 92       	push	r14
      e0:	ff 92       	push	r15
      e2:	e8 2f       	mov	r30, r24
      e4:	6a 01       	movw	r12, r20
      e6:	7b 01       	movw	r14, r22
      e8:	48 2f       	mov	r20, r24
      ea:	4f 70       	andi	r20, 0x0F	; 15
      ec:	84 2f       	mov	r24, r20
      ee:	6e e0       	ldi	r22, 0x0E	; 14
      f0:	8f d7       	rcall	.+3870   	; 0x1010 <__udivmodqi4>
      f2:	29 2f       	mov	r18, r25
      f4:	30 e0       	ldi	r19, 0x00	; 0
      f6:	22 0f       	add	r18, r18
      f8:	33 1f       	adc	r19, r19
      fa:	22 0f       	add	r18, r18
      fc:	33 1f       	adc	r19, r19
C:\Users\ericw\Documents\GitHub\pidog2\attiny84_sketch\pidog2/pidog2.ino:79
    reg_t odata = 0;
    uint8_t insn = (cmd & 0xc0) >> 6;
    reg_names_t reg = (reg_names_t)(cmd & 0xf);

    if (reg == REG_DEVICE_ID) insn = 0;
      fe:	49 30       	cpi	r20, 0x09	; 9
     100:	51 f0       	breq	.+20     	; 0x116 <handleCommand(unsigned char, unsigned long)+0x3c>
C:\Users\ericw\Documents\GitHub\pidog2\attiny84_sketch\pidog2/pidog2.ino:76
myregfile_c rf;
adcReader_c <myregfile_c, 1, 16> adcreader(rf);

reg_t handleCommand(uint8_t cmd, reg_t indata) {
    reg_t odata = 0;
    uint8_t insn = (cmd & 0xc0) >> 6;
     102:	e2 95       	swap	r30
     104:	e6 95       	lsr	r30
     106:	e6 95       	lsr	r30
     108:	e3 70       	andi	r30, 0x03	; 3
C:\Users\ericw\Documents\GitHub\pidog2\attiny84_sketch\pidog2/pidog2.ino:80
    reg_names_t reg = (reg_names_t)(cmd & 0xf);

    if (reg == REG_DEVICE_ID) insn = 0;
    switch (insn) {
     10a:	e2 30       	cpi	r30, 0x02	; 2
     10c:	11 f1       	breq	.+68     	; 0x152 <handleCommand(unsigned char, unsigned long)+0x78>
     10e:	e3 30       	cpi	r30, 0x03	; 3
     110:	61 f1       	breq	.+88     	; 0x16a <handleCommand(unsigned char, unsigned long)+0x90>
     112:	e1 30       	cpi	r30, 0x01	; 1
     114:	71 f0       	breq	.+28     	; 0x132 <handleCommand(unsigned char, unsigned long)+0x58>
_ZN9regfile_cImLj14EE3getEh():
C:\Users\ericw\AppData\Local\Temp\arduino_build_985276\sketch/regfile.h:87
            v &= halfmask;
            return v;
        }

        REGW get(uint8_t addr) { 
            return registers[addr % REG_COUNT];
     116:	27 5f       	subi	r18, 0xF7	; 247
     118:	3e 4f       	sbci	r19, 0xFE	; 254
     11a:	f9 01       	movw	r30, r18
     11c:	c0 80       	ld	r12, Z
     11e:	d1 80       	ldd	r13, Z+1	; 0x01
     120:	e2 80       	ldd	r14, Z+2	; 0x02
     122:	f3 80       	ldd	r15, Z+3	; 0x03
_Z13handleCommandhm():
C:\Users\ericw\Documents\GitHub\pidog2\attiny84_sketch\pidog2/pidog2.ino:96
           odata = rf.set(reg, indata);
           break;
    }
    // rf.dump();
    return odata;
};
     124:	c7 01       	movw	r24, r14
     126:	b6 01       	movw	r22, r12
     128:	ff 90       	pop	r15
     12a:	ef 90       	pop	r14
     12c:	df 90       	pop	r13
     12e:	cf 90       	pop	r12
     130:	08 95       	ret
_ZN9regfile_cImLj14EE5setOrEhm():
C:\Users\ericw\AppData\Local\Temp\arduino_build_985276\sketch/regfile.h:91
        }

        REGW setOr(uint8_t addr, REGW val) {
            registers[addr % REG_COUNT] |= val;
     132:	f9 01       	movw	r30, r18
     134:	e7 5f       	subi	r30, 0xF7	; 247
     136:	fe 4f       	sbci	r31, 0xFE	; 254
     138:	80 81       	ld	r24, Z
     13a:	91 81       	ldd	r25, Z+1	; 0x01
     13c:	a2 81       	ldd	r26, Z+2	; 0x02
     13e:	b3 81       	ldd	r27, Z+3	; 0x03
     140:	c8 2a       	or	r12, r24
     142:	d9 2a       	or	r13, r25
     144:	ea 2a       	or	r14, r26
     146:	fb 2a       	or	r15, r27
_ZN9regfile_cImLj14EE3setEhm():
C:\Users\ericw\AppData\Local\Temp\arduino_build_985276\sketch/regfile.h:99
        REGW setAnd(uint8_t addr, REGW val) {
            registers[addr % REG_COUNT] &= val;
            return get(addr);
        }
        REGW set(uint8_t addr, REGW val) {
            registers[addr % REG_COUNT] = val;
     148:	c0 82       	st	Z, r12
     14a:	d1 82       	std	Z+1, r13	; 0x01
     14c:	e2 82       	std	Z+2, r14	; 0x02
     14e:	f3 82       	std	Z+3, r15	; 0x03
     150:	e9 cf       	rjmp	.-46     	; 0x124 <handleCommand(unsigned char, unsigned long)+0x4a>
_ZN9regfile_cImLj14EE6setAndEhm():
C:\Users\ericw\AppData\Local\Temp\arduino_build_985276\sketch/regfile.h:95
        REGW setOr(uint8_t addr, REGW val) {
            registers[addr % REG_COUNT] |= val;
            return get(addr);
        }
        REGW setAnd(uint8_t addr, REGW val) {
            registers[addr % REG_COUNT] &= val;
     152:	f9 01       	movw	r30, r18
     154:	e7 5f       	subi	r30, 0xF7	; 247
     156:	fe 4f       	sbci	r31, 0xFE	; 254
     158:	80 81       	ld	r24, Z
     15a:	91 81       	ldd	r25, Z+1	; 0x01
     15c:	a2 81       	ldd	r26, Z+2	; 0x02
     15e:	b3 81       	ldd	r27, Z+3	; 0x03
     160:	c8 22       	and	r12, r24
     162:	d9 22       	and	r13, r25
     164:	ea 22       	and	r14, r26
     166:	fb 22       	and	r15, r27
     168:	ef cf       	rjmp	.-34     	; 0x148 <handleCommand(unsigned char, unsigned long)+0x6e>
_ZN9regfile_cImLj14EE3setEhm():
C:\Users\ericw\AppData\Local\Temp\arduino_build_985276\sketch/regfile.h:99
            return get(addr);
        }
        REGW set(uint8_t addr, REGW val) {
            registers[addr % REG_COUNT] = val;
     16a:	27 5f       	subi	r18, 0xF7	; 247
     16c:	3e 4f       	sbci	r19, 0xFE	; 254
     16e:	f9 01       	movw	r30, r18
     170:	eb cf       	rjmp	.-42     	; 0x148 <handleCommand(unsigned char, unsigned long)+0x6e>

00000172 <Print::write(unsigned char const*, unsigned int)>:
_ZN5Print5writeEPKhj():
C:\Users\ericw\AppData\Local\Arduino15\packages\ATTinyCore\hardware\avr\1.4.1\cores\tiny/Print.cpp:34

// Public Methods //////////////////////////////////////////////////////////////

/* default implementation: may be overridden */
size_t Print::write(const uint8_t *buffer, size_t size)
{
     172:	cf 92       	push	r12
     174:	df 92       	push	r13
     176:	ef 92       	push	r14
     178:	ff 92       	push	r15
     17a:	0f 93       	push	r16
     17c:	1f 93       	push	r17
     17e:	cf 93       	push	r28
     180:	df 93       	push	r29
     182:	6c 01       	movw	r12, r24
     184:	eb 01       	movw	r28, r22
     186:	7b 01       	movw	r14, r22
     188:	e4 0e       	add	r14, r20
     18a:	f5 1e       	adc	r15, r21
C:\Users\ericw\AppData\Local\Arduino15\packages\ATTinyCore\hardware\avr\1.4.1\cores\tiny/Print.cpp:35
  size_t n = 0;
     18c:	10 e0       	ldi	r17, 0x00	; 0
     18e:	00 e0       	ldi	r16, 0x00	; 0
C:\Users\ericw\AppData\Local\Arduino15\packages\ATTinyCore\hardware\avr\1.4.1\cores\tiny/Print.cpp:36
  while (size--) {
     190:	ce 15       	cp	r28, r14
     192:	df 05       	cpc	r29, r15
     194:	61 f0       	breq	.+24     	; 0x1ae <Print::write(unsigned char const*, unsigned int)+0x3c>
C:\Users\ericw\AppData\Local\Arduino15\packages\ATTinyCore\hardware\avr\1.4.1\cores\tiny/Print.cpp:37
    n += write(*buffer++);
     196:	69 91       	ld	r22, Y+
     198:	d6 01       	movw	r26, r12
     19a:	ed 91       	ld	r30, X+
     19c:	fc 91       	ld	r31, X
     19e:	01 90       	ld	r0, Z+
     1a0:	f0 81       	ld	r31, Z
     1a2:	e0 2d       	mov	r30, r0
     1a4:	c6 01       	movw	r24, r12
     1a6:	09 95       	icall
     1a8:	08 0f       	add	r16, r24
     1aa:	19 1f       	adc	r17, r25
     1ac:	f1 cf       	rjmp	.-30     	; 0x190 <Print::write(unsigned char const*, unsigned int)+0x1e>
C:\Users\ericw\AppData\Local\Arduino15\packages\ATTinyCore\hardware\avr\1.4.1\cores\tiny/Print.cpp:40
  }
  return n;
}
     1ae:	c8 01       	movw	r24, r16
     1b0:	df 91       	pop	r29
     1b2:	cf 91       	pop	r28
     1b4:	1f 91       	pop	r17
     1b6:	0f 91       	pop	r16
     1b8:	ff 90       	pop	r15
     1ba:	ef 90       	pop	r14
     1bc:	df 90       	pop	r13
     1be:	cf 90       	pop	r12
     1c0:	08 95       	ret

000001c2 <digitalWrite>:
digitalWrite():
C:\Users\ericw\AppData\Local\Arduino15\packages\ATTinyCore\hardware\avr\1.4.1\cores\tiny/wiring_digital.c:138
}

void digitalWrite(uint8_t pin, uint8_t val)
{
  if (pin&128) {pin=analogInputToDigitalPin((pin&127));}
  uint8_t timer = digitalPinToTimer(pin);
     1c2:	90 e0       	ldi	r25, 0x00	; 0
     1c4:	fc 01       	movw	r30, r24
     1c6:	e2 5d       	subi	r30, 0xD2	; 210
     1c8:	ff 4f       	sbci	r31, 0xFF	; 255
     1ca:	34 91       	lpm	r19, Z
C:\Users\ericw\AppData\Local\Arduino15\packages\ATTinyCore\hardware\avr\1.4.1\cores\tiny/wiring_digital.c:139
  uint8_t bit = digitalPinToBitMask(pin);
     1cc:	fc 01       	movw	r30, r24
     1ce:	e3 5b       	subi	r30, 0xB3	; 179
     1d0:	ff 4f       	sbci	r31, 0xFF	; 255
     1d2:	24 91       	lpm	r18, Z
C:\Users\ericw\AppData\Local\Arduino15\packages\ATTinyCore\hardware\avr\1.4.1\cores\tiny/wiring_digital.c:140
  uint8_t port = digitalPinToPort(pin);
     1d4:	fc 01       	movw	r30, r24
     1d6:	ef 5b       	subi	r30, 0xBF	; 191
     1d8:	ff 4f       	sbci	r31, 0xFF	; 255
     1da:	e4 91       	lpm	r30, Z
C:\Users\ericw\AppData\Local\Arduino15\packages\ATTinyCore\hardware\avr\1.4.1\cores\tiny/wiring_digital.c:143
  volatile uint8_t *out;

  if (port == NOT_A_PIN) return;
     1dc:	ee 23       	and	r30, r30
     1de:	b9 f0       	breq	.+46     	; 0x20e <digitalWrite+0x4c>
C:\Users\ericw\AppData\Local\Arduino15\packages\ATTinyCore\hardware\avr\1.4.1\cores\tiny/wiring_digital.c:147

  // If the pin that support PWM output, we need to turn it off
  // before doing a digital write.
  if (timer != NOT_ON_TIMER) turnOffPWM(timer);
     1e0:	33 23       	and	r19, r19
     1e2:	29 f0       	breq	.+10     	; 0x1ee <digitalWrite+0x2c>
turnOffPWM():
C:\Users\ericw\AppData\Local\Arduino15\packages\ATTinyCore\hardware\avr\1.4.1\cores\tiny/wiring_digital.c:67
}

static void turnOffPWM(uint8_t timer)
{
  #if defined(TCCR0A) && defined(COM0A1)
  if( timer == TIMER0A){
     1e4:	31 30       	cpi	r19, 0x01	; 1
     1e6:	a1 f4       	brne	.+40     	; 0x210 <digitalWrite+0x4e>
C:\Users\ericw\AppData\Local\Arduino15\packages\ATTinyCore\hardware\avr\1.4.1\cores\tiny/wiring_digital.c:68
    cbi(TCCR0A, COM0A1);
     1e8:	80 b7       	in	r24, 0x30	; 48
     1ea:	8f 77       	andi	r24, 0x7F	; 127
C:\Users\ericw\AppData\Local\Arduino15\packages\ATTinyCore\hardware\avr\1.4.1\cores\tiny/wiring_digital.c:75
  } else
  #endif

  #if defined(TCCR0A) && defined(COM0B1)
  if( timer == TIMER0B){
    cbi(TCCR0A, COM0B1);
     1ec:	80 bf       	out	0x30, r24	; 48
digitalWrite():
C:\Users\ericw\AppData\Local\Arduino15\packages\ATTinyCore\hardware\avr\1.4.1\cores\tiny/wiring_digital.c:149

  // If the pin that support PWM output, we need to turn it off
  // before doing a digital write.
  if (timer != NOT_ON_TIMER) turnOffPWM(timer);

  out = portOutputRegister(port);
     1ee:	f0 e0       	ldi	r31, 0x00	; 0
     1f0:	ee 0f       	add	r30, r30
     1f2:	ff 1f       	adc	r31, r31
     1f4:	e8 5d       	subi	r30, 0xD8	; 216
     1f6:	ff 4f       	sbci	r31, 0xFF	; 255
     1f8:	a5 91       	lpm	r26, Z+
     1fa:	b4 91       	lpm	r27, Z
C:\Users\ericw\AppData\Local\Arduino15\packages\ATTinyCore\hardware\avr\1.4.1\cores\tiny/wiring_digital.c:152

  if (val == LOW) {
    uint8_t oldSREG = SREG;
     1fc:	8f b7       	in	r24, 0x3f	; 63
C:\Users\ericw\AppData\Local\Arduino15\packages\ATTinyCore\hardware\avr\1.4.1\cores\tiny/wiring_digital.c:151
  // before doing a digital write.
  if (timer != NOT_ON_TIMER) turnOffPWM(timer);

  out = portOutputRegister(port);

  if (val == LOW) {
     1fe:	61 11       	cpse	r22, r1
     200:	17 c0       	rjmp	.+46     	; 0x230 <digitalWrite+0x6e>
C:\Users\ericw\AppData\Local\Arduino15\packages\ATTinyCore\hardware\avr\1.4.1\cores\tiny/wiring_digital.c:153
    uint8_t oldSREG = SREG;
    cli();
     202:	f8 94       	cli
C:\Users\ericw\AppData\Local\Arduino15\packages\ATTinyCore\hardware\avr\1.4.1\cores\tiny/wiring_digital.c:154
    *out &= ~bit;
     204:	ec 91       	ld	r30, X
     206:	20 95       	com	r18
     208:	2e 23       	and	r18, r30
C:\Users\ericw\AppData\Local\Arduino15\packages\ATTinyCore\hardware\avr\1.4.1\cores\tiny/wiring_digital.c:159
    SREG = oldSREG;
  } else {
    uint8_t oldSREG = SREG;
    cli();
    *out |= bit;
     20a:	2c 93       	st	X, r18
C:\Users\ericw\AppData\Local\Arduino15\packages\ATTinyCore\hardware\avr\1.4.1\cores\tiny/wiring_digital.c:160
    SREG = oldSREG;
     20c:	8f bf       	out	0x3f, r24	; 63
C:\Users\ericw\AppData\Local\Arduino15\packages\ATTinyCore\hardware\avr\1.4.1\cores\tiny/wiring_digital.c:162
  }
}
     20e:	08 95       	ret
turnOffPWM():
C:\Users\ericw\AppData\Local\Arduino15\packages\ATTinyCore\hardware\avr\1.4.1\cores\tiny/wiring_digital.c:74
    //cbi(TCCR0A, COM0A0);
  } else
  #endif

  #if defined(TCCR0A) && defined(COM0B1)
  if( timer == TIMER0B){
     210:	32 30       	cpi	r19, 0x02	; 2
     212:	19 f4       	brne	.+6      	; 0x21a <digitalWrite+0x58>
C:\Users\ericw\AppData\Local\Arduino15\packages\ATTinyCore\hardware\avr\1.4.1\cores\tiny/wiring_digital.c:75
    cbi(TCCR0A, COM0B1);
     214:	80 b7       	in	r24, 0x30	; 48
     216:	8f 7d       	andi	r24, 0xDF	; 223
     218:	e9 cf       	rjmp	.-46     	; 0x1ec <digitalWrite+0x2a>
C:\Users\ericw\AppData\Local\Arduino15\packages\ATTinyCore\hardware\avr\1.4.1\cores\tiny/wiring_digital.c:82
  } else
  #endif

  #ifndef __AVR_ATtinyX7__
  #if defined(TCCR1A) && defined(COM1A1)
  if( timer == TIMER1A){
     21a:	33 30       	cpi	r19, 0x03	; 3
     21c:	21 f4       	brne	.+8      	; 0x226 <digitalWrite+0x64>
C:\Users\ericw\AppData\Local\Arduino15\packages\ATTinyCore\hardware\avr\1.4.1\cores\tiny/wiring_digital.c:83
    cbi(TCCR1A, COM1A1);
     21e:	8f b5       	in	r24, 0x2f	; 47
     220:	8f 77       	andi	r24, 0x7F	; 127
C:\Users\ericw\AppData\Local\Arduino15\packages\ATTinyCore\hardware\avr\1.4.1\cores\tiny/wiring_digital.c:114
  } else
  #endif

  #if defined(TCCR1A) && defined(COM1B1)
  if( timer == TIMER1B){
    cbi(TCCR1A, COM1B1);
     222:	8f bd       	out	0x2f, r24	; 47
     224:	e4 cf       	rjmp	.-56     	; 0x1ee <digitalWrite+0x2c>
C:\Users\ericw\AppData\Local\Arduino15\packages\ATTinyCore\hardware\avr\1.4.1\cores\tiny/wiring_digital.c:113
    //cbi(TCCR1, COM1A0);
  } else
  #endif

  #if defined(TCCR1A) && defined(COM1B1)
  if( timer == TIMER1B){
     226:	34 30       	cpi	r19, 0x04	; 4
     228:	11 f7       	brne	.-60     	; 0x1ee <digitalWrite+0x2c>
C:\Users\ericw\AppData\Local\Arduino15\packages\ATTinyCore\hardware\avr\1.4.1\cores\tiny/wiring_digital.c:114
    cbi(TCCR1A, COM1B1);
     22a:	8f b5       	in	r24, 0x2f	; 47
     22c:	8f 7d       	andi	r24, 0xDF	; 223
     22e:	f9 cf       	rjmp	.-14     	; 0x222 <digitalWrite+0x60>
digitalWrite():
C:\Users\ericw\AppData\Local\Arduino15\packages\ATTinyCore\hardware\avr\1.4.1\cores\tiny/wiring_digital.c:158
    cli();
    *out &= ~bit;
    SREG = oldSREG;
  } else {
    uint8_t oldSREG = SREG;
    cli();
     230:	f8 94       	cli
C:\Users\ericw\AppData\Local\Arduino15\packages\ATTinyCore\hardware\avr\1.4.1\cores\tiny/wiring_digital.c:159
    *out |= bit;
     232:	ec 91       	ld	r30, X
     234:	2e 2b       	or	r18, r30
     236:	e9 cf       	rjmp	.-46     	; 0x20a <digitalWrite+0x48>

00000238 <pinMode>:
pinMode():
C:\Users\ericw\AppData\Local\Arduino15\packages\ATTinyCore\hardware\avr\1.4.1\cores\tiny/wiring_digital.c:33
#define ARDUINO_MAIN
#include "wiring_private.h"
#include "pins_arduino.h"

void pinMode(uint8_t pin, uint8_t mode)
{
     238:	cf 93       	push	r28
     23a:	df 93       	push	r29
C:\Users\ericw\AppData\Local\Arduino15\packages\ATTinyCore\hardware\avr\1.4.1\cores\tiny/wiring_digital.c:35
  if (pin&128) {pin=analogInputToDigitalPin((pin&127));}
  uint8_t bit = digitalPinToBitMask(pin);
     23c:	90 e0       	ldi	r25, 0x00	; 0
     23e:	fc 01       	movw	r30, r24
     240:	e3 5b       	subi	r30, 0xB3	; 179
     242:	ff 4f       	sbci	r31, 0xFF	; 255
     244:	24 91       	lpm	r18, Z
C:\Users\ericw\AppData\Local\Arduino15\packages\ATTinyCore\hardware\avr\1.4.1\cores\tiny/wiring_digital.c:36
  uint8_t port = digitalPinToPort(pin);
     246:	8f 5b       	subi	r24, 0xBF	; 191
     248:	9f 4f       	sbci	r25, 0xFF	; 255
     24a:	fc 01       	movw	r30, r24
     24c:	84 91       	lpm	r24, Z
C:\Users\ericw\AppData\Local\Arduino15\packages\ATTinyCore\hardware\avr\1.4.1\cores\tiny/wiring_digital.c:39
  volatile uint8_t *reg, *out;

  if (port == NOT_A_PIN) return;
     24e:	88 23       	and	r24, r24
     250:	d1 f0       	breq	.+52     	; 0x286 <__stack+0x27>
C:\Users\ericw\AppData\Local\Arduino15\packages\ATTinyCore\hardware\avr\1.4.1\cores\tiny/wiring_digital.c:41

  reg = portModeRegister(port);
     252:	90 e0       	ldi	r25, 0x00	; 0
     254:	88 0f       	add	r24, r24
     256:	99 1f       	adc	r25, r25
     258:	fc 01       	movw	r30, r24
     25a:	ee 5d       	subi	r30, 0xDE	; 222
     25c:	ff 4f       	sbci	r31, 0xFF	; 255
     25e:	a5 91       	lpm	r26, Z+
     260:	b4 91       	lpm	r27, Z
C:\Users\ericw\AppData\Local\Arduino15\packages\ATTinyCore\hardware\avr\1.4.1\cores\tiny/wiring_digital.c:42
  out = portOutputRegister(port);
     262:	fc 01       	movw	r30, r24
     264:	e8 5d       	subi	r30, 0xD8	; 216
     266:	ff 4f       	sbci	r31, 0xFF	; 255
     268:	c5 91       	lpm	r28, Z+
     26a:	d4 91       	lpm	r29, Z
C:\Users\ericw\AppData\Local\Arduino15\packages\ATTinyCore\hardware\avr\1.4.1\cores\tiny/wiring_digital.c:44

  if (mode == INPUT) {
     26c:	61 11       	cpse	r22, r1
     26e:	0e c0       	rjmp	.+28     	; 0x28c <__stack+0x2d>
C:\Users\ericw\AppData\Local\Arduino15\packages\ATTinyCore\hardware\avr\1.4.1\cores\tiny/wiring_digital.c:45
    uint8_t oldSREG = SREG;
     270:	9f b7       	in	r25, 0x3f	; 63
C:\Users\ericw\AppData\Local\Arduino15\packages\ATTinyCore\hardware\avr\1.4.1\cores\tiny/wiring_digital.c:46
                cli();
     272:	f8 94       	cli
C:\Users\ericw\AppData\Local\Arduino15\packages\ATTinyCore\hardware\avr\1.4.1\cores\tiny/wiring_digital.c:47
    *reg &= ~bit;
     274:	8c 91       	ld	r24, X
     276:	e2 2f       	mov	r30, r18
     278:	e0 95       	com	r30
     27a:	8e 23       	and	r24, r30
     27c:	8c 93       	st	X, r24
C:\Users\ericw\AppData\Local\Arduino15\packages\ATTinyCore\hardware\avr\1.4.1\cores\tiny/wiring_digital.c:48
    *out &= ~bit;
     27e:	28 81       	ld	r18, Y
     280:	e2 23       	and	r30, r18
     282:	e8 83       	st	Y, r30
C:\Users\ericw\AppData\Local\Arduino15\packages\ATTinyCore\hardware\avr\1.4.1\cores\tiny/wiring_digital.c:49
    SREG = oldSREG;
     284:	9f bf       	out	0x3f, r25	; 63
C:\Users\ericw\AppData\Local\Arduino15\packages\ATTinyCore\hardware\avr\1.4.1\cores\tiny/wiring_digital.c:62
    uint8_t oldSREG = SREG;
                cli();
    *reg |= bit;
    SREG = oldSREG;
  }
}
     286:	df 91       	pop	r29
     288:	cf 91       	pop	r28
     28a:	08 95       	ret
C:\Users\ericw\AppData\Local\Arduino15\packages\ATTinyCore\hardware\avr\1.4.1\cores\tiny/wiring_digital.c:57
                cli();
    *reg &= ~bit;
    *out |= bit;
    SREG = oldSREG;
  } else {
    uint8_t oldSREG = SREG;
     28c:	8f b7       	in	r24, 0x3f	; 63
C:\Users\ericw\AppData\Local\Arduino15\packages\ATTinyCore\hardware\avr\1.4.1\cores\tiny/wiring_digital.c:58
                cli();
     28e:	f8 94       	cli
C:\Users\ericw\AppData\Local\Arduino15\packages\ATTinyCore\hardware\avr\1.4.1\cores\tiny/wiring_digital.c:59
    *reg |= bit;
     290:	ec 91       	ld	r30, X
     292:	e2 2b       	or	r30, r18
     294:	ec 93       	st	X, r30
C:\Users\ericw\AppData\Local\Arduino15\packages\ATTinyCore\hardware\avr\1.4.1\cores\tiny/wiring_digital.c:60
    SREG = oldSREG;
     296:	8f bf       	out	0x3f, r24	; 63
     298:	f6 cf       	rjmp	.-20     	; 0x286 <__stack+0x27>

0000029a <analogRead>:
analogRead():
C:\Users\ericw\AppData\Local\Arduino15\packages\ATTinyCore\hardware\avr\1.4.1\cores\tiny/wiring_analog.c:72
  #ifndef ADCSRA
  return digitalRead(analogInputToDigitalPin(pin)) ? 1023 : 0; //No ADC, so read as a digital pin instead.
  #endif

  #if defined(ADMUX)
  ADMUX = ((analog_reference & ADMUX_REFS_MASK) << REFS0) | ((pin & ADMUX_MUX_MASK) << MUX0); //select the channel and reference
     29a:	90 91 ee 00 	lds	r25, 0x00EE	; 0x8000ee <analog_reference>
     29e:	92 95       	swap	r25
     2a0:	99 0f       	add	r25, r25
     2a2:	99 0f       	add	r25, r25
     2a4:	90 7c       	andi	r25, 0xC0	; 192
C:\Users\ericw\AppData\Local\Arduino15\packages\ATTinyCore\hardware\avr\1.4.1\cores\tiny/wiring_analog.c:66
#define ADMUX_MUX_MASK (0x07)
#endif

int analogRead(uint8_t pin)
{
  pin &=127; //strip off the high bit of the A# constants
     2a6:	8f 77       	andi	r24, 0x7F	; 127
C:\Users\ericw\AppData\Local\Arduino15\packages\ATTinyCore\hardware\avr\1.4.1\cores\tiny/wiring_analog.c:72
  #ifndef ADCSRA
  return digitalRead(analogInputToDigitalPin(pin)) ? 1023 : 0; //No ADC, so read as a digital pin instead.
  #endif

  #if defined(ADMUX)
  ADMUX = ((analog_reference & ADMUX_REFS_MASK) << REFS0) | ((pin & ADMUX_MUX_MASK) << MUX0); //select the channel and reference
     2a8:	98 2b       	or	r25, r24
     2aa:	97 b9       	out	0x07, r25	; 7
C:\Users\ericw\AppData\Local\Arduino15\packages\ATTinyCore\hardware\avr\1.4.1\cores\tiny/wiring_analog.c:79
  ADMUX |= (((analog_reference & 0x04) >> 2) << REFS2); //some have an extra reference bit in a weird position.
  #endif
  #endif

  #if defined(HAVE_ADC) && HAVE_ADC
  sbi(ADCSRA, ADSC); //Start conversion
     2ac:	36 9a       	sbi	0x06, 6	; 6
C:\Users\ericw\AppData\Local\Arduino15\packages\ATTinyCore\hardware\avr\1.4.1\cores\tiny/wiring_analog.c:81

  while(ADCSRA & (1<<ADSC)); //Wait for conversion to complete.
     2ae:	36 99       	sbic	0x06, 6	; 6
     2b0:	fe cf       	rjmp	.-4      	; 0x2ae <analogRead+0x14>
C:\Users\ericw\AppData\Local\Arduino15\packages\ATTinyCore\hardware\avr\1.4.1\cores\tiny/wiring_analog.c:83

  uint8_t low = ADCL;
     2b2:	84 b1       	in	r24, 0x04	; 4
C:\Users\ericw\AppData\Local\Arduino15\packages\ATTinyCore\hardware\avr\1.4.1\cores\tiny/wiring_analog.c:84
  uint8_t high = ADCH;
     2b4:	95 b1       	in	r25, 0x05	; 5
C:\Users\ericw\AppData\Local\Arduino15\packages\ATTinyCore\hardware\avr\1.4.1\cores\tiny/wiring_analog.c:89
  return (high << 8) | low;
  #else
  return LOW;
  #endif
}
     2b6:	08 95       	ret

000002b8 <micros>:
micros():
C:\Users\ericw\AppData\Local\Arduino15\packages\ATTinyCore\hardware\avr\1.4.1\cores\tiny/wiring.c:181
  }

  unsigned long micros()
  {
    unsigned long m;
    uint8_t oldSREG = SREG, t;
     2b8:	3f b7       	in	r19, 0x3f	; 63
C:\Users\ericw\AppData\Local\Arduino15\packages\ATTinyCore\hardware\avr\1.4.1\cores\tiny/wiring.c:183

    cli();
     2ba:	f8 94       	cli
C:\Users\ericw\AppData\Local\Arduino15\packages\ATTinyCore\hardware\avr\1.4.1\cores\tiny/wiring.c:184
    m = millis_timer_overflow_count;
     2bc:	80 91 ea 00 	lds	r24, 0x00EA	; 0x8000ea <millis_timer_overflow_count>
     2c0:	90 91 eb 00 	lds	r25, 0x00EB	; 0x8000eb <millis_timer_overflow_count+0x1>
     2c4:	a0 91 ec 00 	lds	r26, 0x00EC	; 0x8000ec <millis_timer_overflow_count+0x2>
     2c8:	b0 91 ed 00 	lds	r27, 0x00ED	; 0x8000ed <millis_timer_overflow_count+0x3>
C:\Users\ericw\AppData\Local\Arduino15\packages\ATTinyCore\hardware\avr\1.4.1\cores\tiny/wiring.c:186
  #if defined(TCNT0) && (TIMER_TO_USE_FOR_MILLIS == 0) && !defined(TCW0)
    t = TCNT0;
     2cc:	22 b7       	in	r18, 0x32	; 50
C:\Users\ericw\AppData\Local\Arduino15\packages\ATTinyCore\hardware\avr\1.4.1\cores\tiny/wiring.c:198
  #else
    #error "Millis()/Micros() timer not defined"
  #endif

  #if defined(TIFR0) && (TIMER_TO_USE_FOR_MILLIS == 0)
    if ((TIFR0 & _BV(TOV0)) && (t < 255))
     2ce:	08 b6       	in	r0, 0x38	; 56
     2d0:	00 fe       	sbrs	r0, 0
     2d2:	05 c0       	rjmp	.+10     	; 0x2de <micros+0x26>
     2d4:	2f 3f       	cpi	r18, 0xFF	; 255
     2d6:	19 f0       	breq	.+6      	; 0x2de <micros+0x26>
C:\Users\ericw\AppData\Local\Arduino15\packages\ATTinyCore\hardware\avr\1.4.1\cores\tiny/wiring.c:199
      m++;
     2d8:	01 96       	adiw	r24, 0x01	; 1
     2da:	a1 1d       	adc	r26, r1
     2dc:	b1 1d       	adc	r27, r1
C:\Users\ericw\AppData\Local\Arduino15\packages\ATTinyCore\hardware\avr\1.4.1\cores\tiny/wiring.c:211
  #elif defined(TIFR) && (TIMER_TO_USE_FOR_MILLIS == 1)
    if ((TIFR & _BV(TOV1)) && (t < 255))
      m++;
  #endif

    SREG = oldSREG;
     2de:	3f bf       	out	0x3f, r19	; 63
C:\Users\ericw\AppData\Local\Arduino15\packages\ATTinyCore\hardware\avr\1.4.1\cores\tiny/wiring.c:218

  #if F_CPU < 1000000L
    return ((m << 8) + t) * MillisTimer_Prescale_Value * (1000000L/F_CPU);
  #else
    #if (MillisTimer_Prescale_Value % clockCyclesPerMicrosecond() == 0 && (F_CPU % 1000000 == 0 )) // Can we just do it the naive way? If so great!
      return ((m << 8) + t) * (MillisTimer_Prescale_Value / clockCyclesPerMicrosecond());
     2e0:	ba 2f       	mov	r27, r26
     2e2:	a9 2f       	mov	r26, r25
     2e4:	98 2f       	mov	r25, r24
     2e6:	88 27       	eor	r24, r24
     2e8:	bc 01       	movw	r22, r24
     2ea:	cd 01       	movw	r24, r26
     2ec:	62 0f       	add	r22, r18
     2ee:	71 1d       	adc	r23, r1
     2f0:	81 1d       	adc	r24, r1
     2f2:	91 1d       	adc	r25, r1
     2f4:	43 e0       	ldi	r20, 0x03	; 3
     2f6:	66 0f       	add	r22, r22
     2f8:	77 1f       	adc	r23, r23
     2fa:	88 1f       	adc	r24, r24
     2fc:	99 1f       	adc	r25, r25
     2fe:	4a 95       	dec	r20
     300:	d1 f7       	brne	.-12     	; 0x2f6 <micros+0x3e>
C:\Users\ericw\AppData\Local\Arduino15\packages\ATTinyCore\hardware\avr\1.4.1\cores\tiny/wiring.c:266
      //the high part gets divided by cCPuS then multiplied by the prescaler. Then take the low 8 bits plus the high part modulo-cCPuS to correct for the division, then multiply that by the prescaler value first before dividing by cCPuS, and finally add the two together.
      //return ((m << 8 )/clockCyclesPerMicrosecond()* MillisTimer_Prescale_Value) + ((t+(((m<<8)%clockCyclesPerMicrosecond())) * MillisTimer_Prescale_Value / clockCyclesPerMicrosecond()));
      return ((m << 8 )/clockCyclesPerMicrosecond()* MillisTimer_Prescale_Value) + (t * MillisTimer_Prescale_Value / clockCyclesPerMicrosecond());
    #endif
  #endif
  }
     302:	08 95       	ret

00000304 <delay>:
delay():
C:\Users\ericw\AppData\Local\Arduino15\packages\ATTinyCore\hardware\avr\1.4.1\cores\tiny/wiring.c:276
    // Empty
  }
  void yield(void) __attribute__ ((weak, alias("__empty")));

  void delay(unsigned long ms)
  {
     304:	cf 92       	push	r12
     306:	df 92       	push	r13
     308:	ef 92       	push	r14
     30a:	ff 92       	push	r15
     30c:	cf 93       	push	r28
     30e:	df 93       	push	r29
     310:	6b 01       	movw	r12, r22
     312:	7c 01       	movw	r14, r24
C:\Users\ericw\AppData\Local\Arduino15\packages\ATTinyCore\hardware\avr\1.4.1\cores\tiny/wiring.c:278
    #if (F_CPU>=1000000L)
    uint16_t start = (uint16_t)micros();
     314:	d1 df       	rcall	.-94     	; 0x2b8 <micros>
     316:	eb 01       	movw	r28, r22
C:\Users\ericw\AppData\Local\Arduino15\packages\ATTinyCore\hardware\avr\1.4.1\cores\tiny/wiring.c:282

    while (ms > 0) {
      yield();
      while (((uint16_t)micros() - start) >= 1000 && ms) {
     318:	cf df       	rcall	.-98     	; 0x2b8 <micros>
     31a:	6c 1b       	sub	r22, r28
     31c:	7d 0b       	sbc	r23, r29
     31e:	68 3e       	cpi	r22, 0xE8	; 232
     320:	73 40       	sbci	r23, 0x03	; 3
     322:	a0 f0       	brcs	.+40     	; 0x34c <delay+0x48>
     324:	c1 14       	cp	r12, r1
     326:	d1 04       	cpc	r13, r1
     328:	e1 04       	cpc	r14, r1
     32a:	f1 04       	cpc	r15, r1
     32c:	39 f4       	brne	.+14     	; 0x33c <delay+0x38>
C:\Users\ericw\AppData\Local\Arduino15\packages\ATTinyCore\hardware\avr\1.4.1\cores\tiny/wiring.c:292
    #else
    uint32_t start = millis();
    while((millis() - start) < ms)  /* NOP */yield();
    return;
    #endif
  }
     32e:	df 91       	pop	r29
     330:	cf 91       	pop	r28
     332:	ff 90       	pop	r15
     334:	ef 90       	pop	r14
     336:	df 90       	pop	r13
     338:	cf 90       	pop	r12
     33a:	08 95       	ret
C:\Users\ericw\AppData\Local\Arduino15\packages\ATTinyCore\hardware\avr\1.4.1\cores\tiny/wiring.c:283
    uint16_t start = (uint16_t)micros();

    while (ms > 0) {
      yield();
      while (((uint16_t)micros() - start) >= 1000 && ms) {
        ms--;
     33c:	81 e0       	ldi	r24, 0x01	; 1
     33e:	c8 1a       	sub	r12, r24
     340:	d1 08       	sbc	r13, r1
     342:	e1 08       	sbc	r14, r1
     344:	f1 08       	sbc	r15, r1
C:\Users\ericw\AppData\Local\Arduino15\packages\ATTinyCore\hardware\avr\1.4.1\cores\tiny/wiring.c:284
        start += 1000;
     346:	c8 51       	subi	r28, 0x18	; 24
     348:	dc 4f       	sbci	r29, 0xFC	; 252
     34a:	e6 cf       	rjmp	.-52     	; 0x318 <delay+0x14>
C:\Users\ericw\AppData\Local\Arduino15\packages\ATTinyCore\hardware\avr\1.4.1\cores\tiny/wiring.c:280
  void delay(unsigned long ms)
  {
    #if (F_CPU>=1000000L)
    uint16_t start = (uint16_t)micros();

    while (ms > 0) {
     34c:	c1 14       	cp	r12, r1
     34e:	d1 04       	cpc	r13, r1
     350:	e1 04       	cpc	r14, r1
     352:	f1 04       	cpc	r15, r1
     354:	09 f7       	brne	.-62     	; 0x318 <delay+0x14>
     356:	eb cf       	rjmp	.-42     	; 0x32e <delay+0x2a>

00000358 <spislave_c::getInstance()>:
_ZN10spislave_c11getInstanceEv():
C:\Users\ericw\AppData\Local\Temp\arduino_build_985276\sketch/spislave.h:28
        reg_t   dv_in, dv_out;
        uint8_t cmd_in, cmd_out;

    public:
        static spislave_c *getInstance() {
            static spislave_c instance;
     358:	80 91 c5 00 	lds	r24, 0x00C5	; 0x8000c5 <guard variable for spislave_c::getInstance()::instance>
     35c:	81 11       	cpse	r24, r1
     35e:	1e c0       	rjmp	.+60     	; 0x39c <spislave_c::getInstance()+0x44>
__base_ctor ():
C:\Users\ericw\AppData\Local\Temp\arduino_build_985276\sketch/spislave.h:19
typedef uint32_t reg_t;
typedef reg_t (*cmdhandler_t)(uint8_t, reg_t);

class spislave_c {
    private:
        spislave_c() : psrl(0), bctr(-1), dv_in(0), dv_out(0), cmd_in(0), cmd_out(0) {};
     360:	10 92 b9 00 	sts	0x00B9, r1	; 0x8000b9 <__data_end+0x3>
     364:	10 92 b8 00 	sts	0x00B8, r1	; 0x8000b8 <__data_end+0x2>
     368:	8f ef       	ldi	r24, 0xFF	; 255
     36a:	80 93 ba 00 	sts	0x00BA, r24	; 0x8000ba <__data_end+0x4>
     36e:	10 92 bb 00 	sts	0x00BB, r1	; 0x8000bb <__data_end+0x5>
     372:	10 92 bc 00 	sts	0x00BC, r1	; 0x8000bc <__data_end+0x6>
     376:	10 92 bd 00 	sts	0x00BD, r1	; 0x8000bd <__data_end+0x7>
     37a:	10 92 be 00 	sts	0x00BE, r1	; 0x8000be <__data_end+0x8>
     37e:	10 92 bf 00 	sts	0x00BF, r1	; 0x8000bf <__data_end+0x9>
     382:	10 92 c0 00 	sts	0x00C0, r1	; 0x8000c0 <__data_end+0xa>
     386:	10 92 c1 00 	sts	0x00C1, r1	; 0x8000c1 <__data_end+0xb>
     38a:	10 92 c2 00 	sts	0x00C2, r1	; 0x8000c2 <__data_end+0xc>
     38e:	10 92 c3 00 	sts	0x00C3, r1	; 0x8000c3 <__data_end+0xd>
     392:	10 92 c4 00 	sts	0x00C4, r1	; 0x8000c4 <__data_end+0xe>
_ZN10spislave_c11getInstanceEv():
C:\Users\ericw\AppData\Local\Temp\arduino_build_985276\sketch/spislave.h:28
        reg_t   dv_in, dv_out;
        uint8_t cmd_in, cmd_out;

    public:
        static spislave_c *getInstance() {
            static spislave_c instance;
     396:	81 e0       	ldi	r24, 0x01	; 1
     398:	80 93 c5 00 	sts	0x00C5, r24	; 0x8000c5 <guard variable for spislave_c::getInstance()::instance>
C:\Users\ericw\AppData\Local\Temp\arduino_build_985276\sketch/spislave.h:30
            return &instance;
        }
     39c:	86 eb       	ldi	r24, 0xB6	; 182
     39e:	90 e0       	ldi	r25, 0x00	; 0
     3a0:	08 95       	ret

000003a2 <SoftwareSerialTX::write(unsigned char)>:
_ZN16SoftwareSerialTX5writeEh():
C:\Users\ericw\AppData\Local\Temp\arduino_build_985276\sketch/SoftwareSerial_tx.cpp:139
{
}


size_t SoftwareSerialTX::write(uint8_t b)
{
     3a2:	ef 92       	push	r14
     3a4:	ff 92       	push	r15
     3a6:	0f 93       	push	r16
     3a8:	1f 93       	push	r17
     3aa:	cf 93       	push	r28
     3ac:	df 93       	push	r29
     3ae:	dc 01       	movw	r26, r24
C:\Users\ericw\AppData\Local\Temp\arduino_build_985276\sketch/SoftwareSerial_tx.cpp:140
  if (_tx_delay == 0) {
     3b0:	1f 96       	adiw	r26, 0x0f	; 15
     3b2:	ed 90       	ld	r14, X+
     3b4:	fc 90       	ld	r15, X
     3b6:	50 97       	sbiw	r26, 0x10	; 16
     3b8:	e1 14       	cp	r14, r1
     3ba:	f1 04       	cpc	r15, r1
     3bc:	79 f4       	brne	.+30     	; 0x3dc <SoftwareSerialTX::write(unsigned char)+0x3a>
_ZN5Print13setWriteErrorEi():
C:\Users\ericw\AppData\Local\Arduino15\packages\ATTinyCore\hardware\avr\1.4.1\cores\tiny/Print.h:73
  private:
    int write_error;
    size_t printNumber(unsigned long, uint8_t);
    size_t printFloat(double, uint8_t);
  protected:
    void setWriteError(int err = 1) { write_error = err; }
     3be:	81 e0       	ldi	r24, 0x01	; 1
     3c0:	90 e0       	ldi	r25, 0x00	; 0
     3c2:	13 96       	adiw	r26, 0x03	; 3
     3c4:	9c 93       	st	X, r25
     3c6:	8e 93       	st	-X, r24
     3c8:	12 97       	sbiw	r26, 0x02	; 2
_ZN16SoftwareSerialTX5writeEh():
C:\Users\ericw\AppData\Local\Temp\arduino_build_985276\sketch/SoftwareSerial_tx.cpp:142
    setWriteError();
    return 0;
     3ca:	90 e0       	ldi	r25, 0x00	; 0
     3cc:	80 e0       	ldi	r24, 0x00	; 0
C:\Users\ericw\AppData\Local\Temp\arduino_build_985276\sketch/SoftwareSerial_tx.cpp:191

  SREG = oldSREG; // turn interrupts back on
  tunedDelay(_tx_delay);
  
  return 1;
}
     3ce:	df 91       	pop	r29
     3d0:	cf 91       	pop	r28
     3d2:	1f 91       	pop	r17
     3d4:	0f 91       	pop	r16
     3d6:	ff 90       	pop	r15
     3d8:	ef 90       	pop	r14
     3da:	08 95       	ret
C:\Users\ericw\AppData\Local\Temp\arduino_build_985276\sketch/SoftwareSerial_tx.cpp:149

  // By declaring these as local variables, the compiler will put them
  // in registers _before_ disabling interrupts and entering the
  // critical timing sections below, which makes it a lot easier to
  // verify the cycle timings
  volatile uint8_t *reg = _transmitPortRegister;
     3dc:	1d 96       	adiw	r26, 0x0d	; 13
     3de:	ed 91       	ld	r30, X+
     3e0:	fc 91       	ld	r31, X
     3e2:	1e 97       	sbiw	r26, 0x0e	; 14
C:\Users\ericw\AppData\Local\Temp\arduino_build_985276\sketch/SoftwareSerial_tx.cpp:150
  uint8_t reg_mask = _transmitBitMask;
     3e4:	1c 96       	adiw	r26, 0x0c	; 12
     3e6:	8c 91       	ld	r24, X
     3e8:	1c 97       	sbiw	r26, 0x0c	; 12
C:\Users\ericw\AppData\Local\Temp\arduino_build_985276\sketch/SoftwareSerial_tx.cpp:151
  uint8_t inv_mask = ~_transmitBitMask;
     3ea:	98 2f       	mov	r25, r24
     3ec:	90 95       	com	r25
C:\Users\ericw\AppData\Local\Temp\arduino_build_985276\sketch/SoftwareSerial_tx.cpp:152
  uint8_t oldSREG = SREG;
     3ee:	0f b7       	in	r16, 0x3f	; 63
C:\Users\ericw\AppData\Local\Temp\arduino_build_985276\sketch/SoftwareSerial_tx.cpp:153
  bool inv = _inverse_logic;
     3f0:	51 96       	adiw	r26, 0x11	; 17
     3f2:	2c 91       	ld	r18, X
     3f4:	51 97       	sbiw	r26, 0x11	; 17
C:\Users\ericw\AppData\Local\Temp\arduino_build_985276\sketch/SoftwareSerial_tx.cpp:156
  uint16_t delay = _tx_delay;

  if (inv)
     3f6:	12 2f       	mov	r17, r18
     3f8:	11 70       	andi	r17, 0x01	; 1
     3fa:	20 fd       	sbrc	r18, 0
C:\Users\ericw\AppData\Local\Temp\arduino_build_985276\sketch/SoftwareSerial_tx.cpp:157
    b = ~b;
     3fc:	60 95       	com	r22
C:\Users\ericw\AppData\Local\Temp\arduino_build_985276\sketch/SoftwareSerial_tx.cpp:159

  cli();  // turn off interrupts for a clean txmit
     3fe:	f8 94       	cli
C:\Users\ericw\AppData\Local\Temp\arduino_build_985276\sketch/SoftwareSerial_tx.cpp:163

  // Write the start bit
  if (inv)
    *reg |= reg_mask;
     400:	20 81       	ld	r18, Z
C:\Users\ericw\AppData\Local\Temp\arduino_build_985276\sketch/SoftwareSerial_tx.cpp:162
    b = ~b;

  cli();  // turn off interrupts for a clean txmit

  // Write the start bit
  if (inv)
     402:	11 23       	and	r17, r17
     404:	19 f1       	breq	.+70     	; 0x44c <__LOCK_REGION_LENGTH__+0x4c>
C:\Users\ericw\AppData\Local\Temp\arduino_build_985276\sketch/SoftwareSerial_tx.cpp:163
    *reg |= reg_mask;
     406:	28 2b       	or	r18, r24
C:\Users\ericw\AppData\Local\Temp\arduino_build_985276\sketch/SoftwareSerial_tx.cpp:165
  else
    *reg &= inv_mask;
     408:	20 83       	st	Z, r18
_delay_loop_2():
c:\users\ericw\appdata\local\arduino15\packages\arduino\tools\avr-gcc\7.3.0-atmel3.6.1-arduino7\avr\include\util/delay_basic.h:110
	__asm__ volatile (
		"1: sbiw %0,1" "\n\t"
		"brne 1b"
		: "=w" (__count)
		: "0" (__count)
	);
     40a:	e7 01       	movw	r28, r14
     40c:	21 97       	sbiw	r28, 0x01	; 1
     40e:	f1 f7       	brne	.-4      	; 0x40c <__LOCK_REGION_LENGTH__+0xc>
     410:	28 e0       	ldi	r18, 0x08	; 8
_ZN16SoftwareSerialTX5writeEh():
C:\Users\ericw\AppData\Local\Temp\arduino_build_985276\sketch/SoftwareSerial_tx.cpp:172
  tunedDelay(delay);

  // Write each of the 8 bits
  for (uint8_t i = 8; i > 0; --i)
  {
    if (b & 1) // choose bit
     412:	46 2f       	mov	r20, r22
     414:	50 e0       	ldi	r21, 0x00	; 0
C:\Users\ericw\AppData\Local\Temp\arduino_build_985276\sketch/SoftwareSerial_tx.cpp:173
      *reg |= reg_mask; // send 1
     416:	30 81       	ld	r19, Z
C:\Users\ericw\AppData\Local\Temp\arduino_build_985276\sketch/SoftwareSerial_tx.cpp:172
  tunedDelay(delay);

  // Write each of the 8 bits
  for (uint8_t i = 8; i > 0; --i)
  {
    if (b & 1) // choose bit
     418:	60 ff       	sbrs	r22, 0
     41a:	1a c0       	rjmp	.+52     	; 0x450 <__LOCK_REGION_LENGTH__+0x50>
C:\Users\ericw\AppData\Local\Temp\arduino_build_985276\sketch/SoftwareSerial_tx.cpp:173
      *reg |= reg_mask; // send 1
     41c:	38 2b       	or	r19, r24
C:\Users\ericw\AppData\Local\Temp\arduino_build_985276\sketch/SoftwareSerial_tx.cpp:175
    else
      *reg &= inv_mask; // send 0
     41e:	30 83       	st	Z, r19
_delay_loop_2():
c:\users\ericw\appdata\local\arduino15\packages\arduino\tools\avr-gcc\7.3.0-atmel3.6.1-arduino7\avr\include\util/delay_basic.h:110
     420:	e7 01       	movw	r28, r14
     422:	21 97       	sbiw	r28, 0x01	; 1
     424:	f1 f7       	brne	.-4      	; 0x422 <__LOCK_REGION_LENGTH__+0x22>
_ZN16SoftwareSerialTX5writeEh():
C:\Users\ericw\AppData\Local\Temp\arduino_build_985276\sketch/SoftwareSerial_tx.cpp:178

    tunedDelay(delay);
    b >>= 1;
     426:	ba 01       	movw	r22, r20
     428:	75 95       	asr	r23
     42a:	67 95       	ror	r22
     42c:	21 50       	subi	r18, 0x01	; 1
C:\Users\ericw\AppData\Local\Temp\arduino_build_985276\sketch/SoftwareSerial_tx.cpp:170
    *reg &= inv_mask;

  tunedDelay(delay);

  // Write each of the 8 bits
  for (uint8_t i = 8; i > 0; --i)
     42e:	89 f7       	brne	.-30     	; 0x412 <__LOCK_REGION_LENGTH__+0x12>
C:\Users\ericw\AppData\Local\Temp\arduino_build_985276\sketch/SoftwareSerial_tx.cpp:182
    tunedDelay(delay);
    b >>= 1;
  }

  // restore pin to natural state
  if (inv)
     430:	11 23       	and	r17, r17
     432:	81 f0       	breq	.+32     	; 0x454 <__LOCK_REGION_LENGTH__+0x54>
C:\Users\ericw\AppData\Local\Temp\arduino_build_985276\sketch/SoftwareSerial_tx.cpp:183
    *reg &= inv_mask;
     434:	80 81       	ld	r24, Z
     436:	89 23       	and	r24, r25
C:\Users\ericw\AppData\Local\Temp\arduino_build_985276\sketch/SoftwareSerial_tx.cpp:185
  else
    *reg |= reg_mask;
     438:	80 83       	st	Z, r24
C:\Users\ericw\AppData\Local\Temp\arduino_build_985276\sketch/SoftwareSerial_tx.cpp:187

  SREG = oldSREG; // turn interrupts back on
     43a:	0f bf       	out	0x3f, r16	; 63
_delay_loop_2():
c:\users\ericw\appdata\local\arduino15\packages\arduino\tools\avr-gcc\7.3.0-atmel3.6.1-arduino7\avr\include\util/delay_basic.h:110
     43c:	1f 96       	adiw	r26, 0x0f	; 15
     43e:	8d 91       	ld	r24, X+
     440:	9c 91       	ld	r25, X
     442:	01 97       	sbiw	r24, 0x01	; 1
     444:	f1 f7       	brne	.-4      	; 0x442 <__LOCK_REGION_LENGTH__+0x42>
_ZN16SoftwareSerialTX5writeEh():
C:\Users\ericw\AppData\Local\Temp\arduino_build_985276\sketch/SoftwareSerial_tx.cpp:190
  tunedDelay(_tx_delay);
  
  return 1;
     446:	81 e0       	ldi	r24, 0x01	; 1
     448:	90 e0       	ldi	r25, 0x00	; 0
     44a:	c1 cf       	rjmp	.-126    	; 0x3ce <SoftwareSerialTX::write(unsigned char)+0x2c>
C:\Users\ericw\AppData\Local\Temp\arduino_build_985276\sketch/SoftwareSerial_tx.cpp:165

  // Write the start bit
  if (inv)
    *reg |= reg_mask;
  else
    *reg &= inv_mask;
     44c:	29 23       	and	r18, r25
     44e:	dc cf       	rjmp	.-72     	; 0x408 <__LOCK_REGION_LENGTH__+0x8>
C:\Users\ericw\AppData\Local\Temp\arduino_build_985276\sketch/SoftwareSerial_tx.cpp:175
  for (uint8_t i = 8; i > 0; --i)
  {
    if (b & 1) // choose bit
      *reg |= reg_mask; // send 1
    else
      *reg &= inv_mask; // send 0
     450:	39 23       	and	r19, r25
     452:	e5 cf       	rjmp	.-54     	; 0x41e <__LOCK_REGION_LENGTH__+0x1e>
C:\Users\ericw\AppData\Local\Temp\arduino_build_985276\sketch/SoftwareSerial_tx.cpp:185

  // restore pin to natural state
  if (inv)
    *reg &= inv_mask;
  else
    *reg |= reg_mask;
     454:	90 81       	ld	r25, Z
     456:	89 2b       	or	r24, r25
     458:	ef cf       	rjmp	.-34     	; 0x438 <__LOCK_REGION_LENGTH__+0x38>

0000045a <SoftwareSerialTX::flush()>:
_ZN16SoftwareSerialTX5flushEv():
C:\Users\ericw\AppData\Local\Temp\arduino_build_985276\sketch/SoftwareSerial_tx.h:51
  int peek() { return 0; };
  virtual int read() { return 0; };
  virtual int available() { return 0; };

  virtual size_t write(uint8_t byte);
  virtual void flush() {};
     45a:	08 95       	ret

0000045c <SoftwareSerialTX::peek()>:
_ZN16SoftwareSerialTX4peekEv():
C:\Users\ericw\AppData\Local\Temp\arduino_build_985276\sketch/SoftwareSerial_tx.h:46
  SoftwareSerialTX(uint8_t transmitPin, bool inverse_logic = false);
  ~SoftwareSerialTX();
  void begin(long speed);
  void end();
  bool overflow() { return false; };
  int peek() { return 0; };
     45c:	90 e0       	ldi	r25, 0x00	; 0
     45e:	80 e0       	ldi	r24, 0x00	; 0
     460:	08 95       	ret

00000462 <Print::write(char const*)>:
_ZN5Print5writeEPKc():
C:\Users\ericw\AppData\Local\Arduino15\packages\ATTinyCore\hardware\avr\1.4.1\cores\tiny/Print.h:81

    int getWriteError() { return write_error; }
    void clearWriteError() { setWriteError(0); }

    virtual size_t write(uint8_t) = 0;
    size_t write(const char *str) { return write((const uint8_t *)str, strlen(str)); }
     462:	fb 01       	movw	r30, r22
     464:	01 90       	ld	r0, Z+
     466:	00 20       	and	r0, r0
     468:	e9 f7       	brne	.-6      	; 0x464 <Print::write(char const*)+0x2>
     46a:	31 97       	sbiw	r30, 0x01	; 1
     46c:	af 01       	movw	r20, r30
     46e:	46 1b       	sub	r20, r22
     470:	57 0b       	sbc	r21, r23
     472:	dc 01       	movw	r26, r24
     474:	ed 91       	ld	r30, X+
     476:	fc 91       	ld	r31, X
     478:	02 80       	ldd	r0, Z+2	; 0x02
     47a:	f3 81       	ldd	r31, Z+3	; 0x03
     47c:	e0 2d       	mov	r30, r0
     47e:	09 94       	ijmp

00000480 <Print::println(char const*)>:
_ZN5Print7printlnEPKc():
C:\Users\ericw\AppData\Local\Arduino15\packages\ATTinyCore\hardware\avr\1.4.1\cores\tiny/Print.cpp:134
  n += println();
  return n;
}

size_t Print::println(const char c[])
{
     480:	ef 92       	push	r14
     482:	ff 92       	push	r15
     484:	0f 93       	push	r16
     486:	1f 93       	push	r17
     488:	cf 93       	push	r28
     48a:	df 93       	push	r29
     48c:	ec 01       	movw	r28, r24
print():
C:\Users\ericw\AppData\Local\Arduino15\packages\ATTinyCore\hardware\avr\1.4.1\cores\tiny/Print.cpp:53
  return n;
}

size_t Print::print(const char str[])
{
  return write(str);
     48e:	e9 df       	rcall	.-46     	; 0x462 <Print::write(char const*)>
     490:	8c 01       	movw	r16, r24
C:\Users\ericw\AppData\Local\Arduino15\packages\ATTinyCore\hardware\avr\1.4.1\cores\tiny/Print.cpp:58
}

size_t Print::print(char c)
{
  return write(c);
     492:	e8 81       	ld	r30, Y
     494:	f9 81       	ldd	r31, Y+1	; 0x01
     496:	01 90       	ld	r0, Z+
     498:	f0 81       	ld	r31, Z
     49a:	e0 2d       	mov	r30, r0
     49c:	6d e0       	ldi	r22, 0x0D	; 13
     49e:	ce 01       	movw	r24, r28
     4a0:	09 95       	icall
     4a2:	7c 01       	movw	r14, r24
     4a4:	e8 81       	ld	r30, Y
     4a6:	f9 81       	ldd	r31, Y+1	; 0x01
     4a8:	01 90       	ld	r0, Z+
     4aa:	f0 81       	ld	r31, Z
     4ac:	e0 2d       	mov	r30, r0
     4ae:	6a e0       	ldi	r22, 0x0A	; 10
     4b0:	ce 01       	movw	r24, r28
     4b2:	09 95       	icall
_ZN5Print7printlnEPKc():
C:\Users\ericw\AppData\Local\Arduino15\packages\ATTinyCore\hardware\avr\1.4.1\cores\tiny/Print.cpp:136
}

size_t Print::println(const char c[])
{
  size_t n = print(c);
  n += println();
     4b4:	0e 0d       	add	r16, r14
     4b6:	1f 1d       	adc	r17, r15
C:\Users\ericw\AppData\Local\Arduino15\packages\ATTinyCore\hardware\avr\1.4.1\cores\tiny/Print.cpp:138
  return n;
}
     4b8:	80 0f       	add	r24, r16
     4ba:	91 1f       	adc	r25, r17
     4bc:	df 91       	pop	r29
     4be:	cf 91       	pop	r28
     4c0:	1f 91       	pop	r17
     4c2:	0f 91       	pop	r16
     4c4:	ff 90       	pop	r15
     4c6:	ef 90       	pop	r14
     4c8:	08 95       	ret

000004ca <doTickWork()>:
_Z10doTickWorkv():
C:\Users\ericw\Documents\GitHub\pidog2\attiny84_sketch\pidog2/pidog2.ino:198

const uint8_t TICKS_PER_SECOND = 4;
const uint32_t MILLIS_PER_TICK = (1e3 / TICKS_PER_SECOND);
uint32_t next_tick;

void doTickWork() {
     4ca:	3f 92       	push	r3
     4cc:	4f 92       	push	r4
     4ce:	5f 92       	push	r5
     4d0:	6f 92       	push	r6
     4d2:	7f 92       	push	r7
     4d4:	8f 92       	push	r8
     4d6:	9f 92       	push	r9
     4d8:	af 92       	push	r10
     4da:	bf 92       	push	r11
     4dc:	cf 92       	push	r12
     4de:	df 92       	push	r13
     4e0:	ef 92       	push	r14
     4e2:	ff 92       	push	r15
     4e4:	0f 93       	push	r16
     4e6:	1f 93       	push	r17
     4e8:	cf 93       	push	r28
     4ea:	df 93       	push	r29
     4ec:	cd b7       	in	r28, 0x3d	; 61
     4ee:	de b7       	in	r29, 0x3e	; 62
     4f0:	a1 97       	sbiw	r28, 0x21	; 33
     4f2:	0f b6       	in	r0, 0x3f	; 63
     4f4:	f8 94       	cli
     4f6:	de bf       	out	0x3e, r29	; 62
     4f8:	0f be       	out	0x3f, r0	; 63
     4fa:	cd bf       	out	0x3d, r28	; 61
C:\Users\ericw\Documents\GitHub\pidog2\attiny84_sketch\pidog2/pidog2.ino:200
    static uint8_t tick_count;
    bool second = ! (tick_count % TICKS_PER_SECOND);
     4fc:	80 91 d1 00 	lds	r24, 0x00D1	; 0x8000d1 <doTickWork()::tick_count>
C:\Users\ericw\Documents\GitHub\pidog2\attiny84_sketch\pidog2/pidog2.ino:201
    tick_count += 1;
     500:	91 e0       	ldi	r25, 0x01	; 1
     502:	98 0f       	add	r25, r24
     504:	90 93 d1 00 	sts	0x00D1, r25	; 0x8000d1 <doTickWork()::tick_count>
C:\Users\ericw\Documents\GitHub\pidog2\attiny84_sketch\pidog2/pidog2.ino:203
    
    if (second) { 
     508:	83 70       	andi	r24, 0x03	; 3
     50a:	09 f0       	breq	.+2      	; 0x50e <doTickWork()+0x44>
     50c:	42 c2       	rjmp	.+1156   	; 0x992 <doTickWork()+0x4c8>
_ZN9regfile_cImLj14EE3getEh():
C:\Users\ericw\AppData\Local\Temp\arduino_build_985276\sketch/regfile.h:87
            v &= halfmask;
            return v;
        }

        REGW get(uint8_t addr) { 
            return registers[addr % REG_COUNT];
     50e:	c0 90 09 01 	lds	r12, 0x0109	; 0x800109 <rf>
     512:	d0 90 0a 01 	lds	r13, 0x010A	; 0x80010a <rf+0x1>
     516:	e0 90 0b 01 	lds	r14, 0x010B	; 0x80010b <rf+0x2>
     51a:	f0 90 0c 01 	lds	r15, 0x010C	; 0x80010c <rf+0x3>
doSecondWork():
C:\Users\ericw\Documents\GitHub\pidog2\attiny84_sketch\pidog2/pidog2.ino:102



void doSecondWork() {
    uint32_t s = rf.get(REG_STATUS);
    bool pwr_state = s & _BV(STAT_PWR_ON);
     51e:	d7 01       	movw	r26, r14
     520:	c6 01       	movw	r24, r12
     522:	15 e0       	ldi	r17, 0x05	; 5
     524:	b6 95       	lsr	r27
     526:	a7 95       	ror	r26
     528:	97 95       	ror	r25
     52a:	87 95       	ror	r24
     52c:	1a 95       	dec	r17
     52e:	d1 f7       	brne	.-12     	; 0x524 <doTickWork()+0x5a>
     530:	28 2f       	mov	r18, r24
     532:	21 70       	andi	r18, 0x01	; 1
     534:	32 2e       	mov	r3, r18
C:\Users\ericw\Documents\GitHub\pidog2\attiny84_sketch\pidog2/pidog2.ino:105
    // Clear these status register bits and copy in the lower half of the MCUSR
    s &= ~(_BV(STAT_WDRF) | _BV(STAT_BORF) | _BV(STAT_EXTRF) | _BV(STAT_PORF));
    if ( s & _BV(STAT_WDCLR)) { // rpi wants us to clear MCUSR
     536:	d6 fe       	sbrs	r13, 6
     538:	28 c1       	rjmp	.+592    	; 0x78a <doTickWork()+0x2c0>
C:\Users\ericw\Documents\GitHub\pidog2\attiny84_sketch\pidog2/pidog2.ino:106
      MCUSR =0;
     53a:	14 be       	out	0x34, r1	; 52
C:\Users\ericw\Documents\GitHub\pidog2\attiny84_sketch\pidog2/pidog2.ino:107
      s &= ~_BV(STAT_WDCLR);
     53c:	33 e8       	ldi	r19, 0x83	; 131
     53e:	d3 22       	and	r13, r19
C:\Users\ericw\Documents\GitHub\pidog2\attiny84_sketch\pidog2/pidog2.ino:112
    } else { // write the MCUSR low bits to the status register
      s |= uint32_t ((MCUSR & 0xF) << STAT_PORF);
    }
    
    if ((s & _BV(STAT_WDOG_EN)) && (s & _BV(STAT_PWR_ON))) {
     540:	d7 01       	movw	r26, r14
     542:	c6 01       	movw	r24, r12
     544:	81 72       	andi	r24, 0x21	; 33
     546:	99 27       	eor	r25, r25
     548:	aa 27       	eor	r26, r26
     54a:	bb 27       	eor	r27, r27
     54c:	81 97       	sbiw	r24, 0x21	; 33
     54e:	a1 05       	cpc	r26, r1
     550:	b1 05       	cpc	r27, r1
     552:	09 f0       	breq	.+2      	; 0x556 <doTickWork()+0x8c>
     554:	8f c0       	rjmp	.+286    	; 0x674 <doTickWork()+0x1aa>
_ZN9regfile_cImLj14EE3getEh():
C:\Users\ericw\AppData\Local\Temp\arduino_build_985276\sketch/regfile.h:87
     556:	80 91 0d 01 	lds	r24, 0x010D	; 0x80010d <rf+0x4>
     55a:	90 91 0e 01 	lds	r25, 0x010E	; 0x80010e <rf+0x5>
     55e:	a0 91 0f 01 	lds	r26, 0x010F	; 0x80010f <rf+0x6>
     562:	b0 91 10 01 	lds	r27, 0x0110	; 0x800110 <rf+0x7>
_ZN9regfile_cImLj14EE5gethlEh15register_half_t():
C:\Users\ericw\AppData\Local\Temp\arduino_build_985276\sketch/regfile.h:75
            registers[addr % REG_COUNT] = o;
            return o;
        }

        REGW gethl(uint8_t addr, register_half_t half) {
            REGW v = registers[addr % REG_COUNT];
     566:	40 91 35 01 	lds	r20, 0x0135	; 0x800135 <rf+0x2c>
     56a:	50 91 36 01 	lds	r21, 0x0136	; 0x800136 <rf+0x2d>
     56e:	60 91 37 01 	lds	r22, 0x0137	; 0x800137 <rf+0x2e>
     572:	70 91 38 01 	lds	r23, 0x0138	; 0x800138 <rf+0x2f>
C:\Users\ericw\AppData\Local\Temp\arduino_build_985276\sketch/regfile.h:78
            size_t sz = sizeof(REGW);
            if (half != register_bottom) {
                v >>= (sz * 4);
     576:	8b 01       	movw	r16, r22
     578:	22 27       	eor	r18, r18
     57a:	33 27       	eor	r19, r19
C:\Users\ericw\AppData\Local\Temp\arduino_build_985276\sketch/regfile.h:82
            }
            REGW halfmask = ~(0x0);
            halfmask >>= (sz * 4);
            v &= halfmask;
     57c:	66 27       	eor	r22, r22
     57e:	77 27       	eor	r23, r23
doSecondWork():
C:\Users\ericw\Documents\GitHub\pidog2\attiny84_sketch\pidog2/pidog2.ino:116
        reg_t on_rem = rf.get(REG_ON_REMAINING);
        reg_t a_off_thresh = rf.gethl(REG_VSENSE_OFF_THRESHOLD,register_top);
        reg_t b_off_thresh = rf.gethl(REG_VSENSE_OFF_THRESHOLD,register_bottom);
        bool a_under = a_off_thresh && (rf.gethl(REG_VSENSA_VSENSB,register_top) < a_off_thresh);
     580:	01 15       	cp	r16, r1
     582:	11 05       	cpc	r17, r1
     584:	21 05       	cpc	r18, r1
     586:	31 05       	cpc	r19, r1
     588:	91 f0       	breq	.+36     	; 0x5ae <doTickWork()+0xe4>
_ZN9regfile_cImLj14EE5gethlEh15register_half_t():
C:\Users\ericw\AppData\Local\Temp\arduino_build_985276\sketch/regfile.h:75
            registers[addr % REG_COUNT] = o;
            return o;
        }

        REGW gethl(uint8_t addr, register_half_t half) {
            REGW v = registers[addr % REG_COUNT];
     58a:	40 90 21 01 	lds	r4, 0x0121	; 0x800121 <rf+0x18>
     58e:	50 90 22 01 	lds	r5, 0x0122	; 0x800122 <rf+0x19>
     592:	60 90 23 01 	lds	r6, 0x0123	; 0x800123 <rf+0x1a>
     596:	70 90 24 01 	lds	r7, 0x0124	; 0x800124 <rf+0x1b>
C:\Users\ericw\AppData\Local\Temp\arduino_build_985276\sketch/regfile.h:78
            size_t sz = sizeof(REGW);
            if (half != register_bottom) {
                v >>= (sz * 4);
     59a:	23 01       	movw	r4, r6
     59c:	66 24       	eor	r6, r6
     59e:	77 24       	eor	r7, r7
doSecondWork():
C:\Users\ericw\Documents\GitHub\pidog2\attiny84_sketch\pidog2/pidog2.ino:116
     5a0:	bb 24       	eor	r11, r11
     5a2:	b3 94       	inc	r11
     5a4:	40 16       	cp	r4, r16
     5a6:	51 06       	cpc	r5, r17
     5a8:	62 06       	cpc	r6, r18
     5aa:	73 06       	cpc	r7, r19
     5ac:	08 f0       	brcs	.+2      	; 0x5b0 <doTickWork()+0xe6>
_Z10doTickWorkv():
     5ae:	b1 2c       	mov	r11, r1
doSecondWork():
C:\Users\ericw\Documents\GitHub\pidog2\attiny84_sketch\pidog2/pidog2.ino:117
        bool b_under = b_off_thresh && (rf.gethl(REG_VSENSA_VSENSB,register_bottom) < b_off_thresh);
     5b0:	41 15       	cp	r20, r1
     5b2:	51 05       	cpc	r21, r1
     5b4:	61 05       	cpc	r22, r1
     5b6:	71 05       	cpc	r23, r1
     5b8:	81 f0       	breq	.+32     	; 0x5da <doTickWork()+0x110>
_ZN9regfile_cImLj14EE5gethlEh15register_half_t():
C:\Users\ericw\AppData\Local\Temp\arduino_build_985276\sketch/regfile.h:75
            registers[addr % REG_COUNT] = o;
            return o;
        }

        REGW gethl(uint8_t addr, register_half_t half) {
            REGW v = registers[addr % REG_COUNT];
     5ba:	40 90 21 01 	lds	r4, 0x0121	; 0x800121 <rf+0x18>
     5be:	50 90 22 01 	lds	r5, 0x0122	; 0x800122 <rf+0x19>
     5c2:	60 90 23 01 	lds	r6, 0x0123	; 0x800123 <rf+0x1a>
     5c6:	70 90 24 01 	lds	r7, 0x0124	; 0x800124 <rf+0x1b>
C:\Users\ericw\AppData\Local\Temp\arduino_build_985276\sketch/regfile.h:82
            if (half != register_bottom) {
                v >>= (sz * 4);
            }
            REGW halfmask = ~(0x0);
            halfmask >>= (sz * 4);
            v &= halfmask;
     5ca:	66 24       	eor	r6, r6
     5cc:	77 24       	eor	r7, r7
doSecondWork():
C:\Users\ericw\Documents\GitHub\pidog2\attiny84_sketch\pidog2/pidog2.ino:117
     5ce:	01 e0       	ldi	r16, 0x01	; 1
     5d0:	44 16       	cp	r4, r20
     5d2:	55 06       	cpc	r5, r21
     5d4:	66 06       	cpc	r6, r22
     5d6:	77 06       	cpc	r7, r23
     5d8:	08 f0       	brcs	.+2      	; 0x5dc <doTickWork()+0x112>
_Z10doTickWorkv():
     5da:	00 e0       	ldi	r16, 0x00	; 0
doSecondWork():
C:\Users\ericw\Documents\GitHub\pidog2\attiny84_sketch\pidog2/pidog2.ino:118
        if ( !on_rem || a_under || b_under) {
     5dc:	00 97       	sbiw	r24, 0x00	; 0
     5de:	a1 05       	cpc	r26, r1
     5e0:	b1 05       	cpc	r27, r1
     5e2:	29 f0       	breq	.+10     	; 0x5ee <doTickWork()+0x124>
     5e4:	b1 10       	cpse	r11, r1
     5e6:	03 c0       	rjmp	.+6      	; 0x5ee <doTickWork()+0x124>
     5e8:	00 23       	and	r16, r16
     5ea:	09 f4       	brne	.+2      	; 0x5ee <doTickWork()+0x124>
     5ec:	f0 c0       	rjmp	.+480    	; 0x7ce <doTickWork()+0x304>
C:\Users\ericw\Documents\GitHub\pidog2\attiny84_sketch\pidog2/pidog2.ino:120
            #ifdef SERIAL_DEBUG
            srl.println("Powering off pi.");
     5ee:	60 e7       	ldi	r22, 0x70	; 112
     5f0:	70 e0       	ldi	r23, 0x00	; 0
     5f2:	8f ee       	ldi	r24, 0xEF	; 239
     5f4:	90 e0       	ldi	r25, 0x00	; 0
     5f6:	44 df       	rcall	.-376    	; 0x480 <Print::println(char const*)>
     5f8:	e8 94       	clt
     5fa:	c7 f8       	bld	r12, 7
     5fc:	d0 f8       	bld	r13, 0
C:\Users\ericw\Documents\GitHub\pidog2\attiny84_sketch\pidog2/pidog2.ino:124
            #endif
            s |=  _BV(STAT_WDOG_FIRED);
            s &= ~(_BV(STAT_WDOG_FIRE_CODE) | _BV(STAT_WDOG_FIRE_CODE+1));                        //00b - on-remaining timer expired 
            if (a_under && b_under) s |= (_BV(STAT_WDOG_FIRE_CODE) | _BV(STAT_WDOG_FIRE_CODE+1)); //11b - vsensa & vsensb dropped below threshold 
     5fe:	bb 20       	and	r11, r11
     600:	09 f4       	brne	.+2      	; 0x604 <doTickWork()+0x13a>
     602:	dc c0       	rjmp	.+440    	; 0x7bc <doTickWork()+0x2f2>
     604:	00 23       	and	r16, r16
     606:	09 f4       	brne	.+2      	; 0x60a <doTickWork()+0x140>
     608:	d6 c0       	rjmp	.+428    	; 0x7b6 <doTickWork()+0x2ec>
     60a:	82 e8       	ldi	r24, 0x82	; 130
     60c:	c8 2a       	or	r12, r24
     60e:	68 94       	set
     610:	d0 f8       	bld	r13, 0
C:\Users\ericw\Documents\GitHub\pidog2\attiny84_sketch\pidog2/pidog2.ino:129
            else if (a_under)       s |= _BV(STAT_WDOG_FIRE_CODE);                                //01b - vsensa dropped below threshold
            else if (b_under)       s |= _BV(STAT_WDOG_FIRE_CODE+1);                              //10b - vsensb dropped below threshold
            s &= ~_BV(STAT_WAKE_FIRED);
            s &= ~_BV(STAT_PWR_ON);
            s &= ~_BV(STAT_LED_WARN);
     612:	ff e8       	ldi	r31, 0x8F	; 143
     614:	cf 22       	and	r12, r31
_ZN9regfile_cImLj14EE3setEhm():
C:\Users\ericw\AppData\Local\Temp\arduino_build_985276\sketch/regfile.h:99
        REGW setAnd(uint8_t addr, REGW val) {
            registers[addr % REG_COUNT] &= val;
            return get(addr);
        }
        REGW set(uint8_t addr, REGW val) {
            registers[addr % REG_COUNT] = val;
     616:	80 91 19 01 	lds	r24, 0x0119	; 0x800119 <rf+0x10>
     61a:	90 91 1a 01 	lds	r25, 0x011A	; 0x80011a <rf+0x11>
     61e:	a0 91 1b 01 	lds	r26, 0x011B	; 0x80011b <rf+0x12>
     622:	b0 91 1c 01 	lds	r27, 0x011C	; 0x80011c <rf+0x13>
     626:	80 93 11 01 	sts	0x0111, r24	; 0x800111 <rf+0x8>
     62a:	90 93 12 01 	sts	0x0112, r25	; 0x800112 <rf+0x9>
     62e:	a0 93 13 01 	sts	0x0113, r26	; 0x800113 <rf+0xa>
     632:	b0 93 14 01 	sts	0x0114, r27	; 0x800114 <rf+0xb>
_ZN9regfile_cImLj14EE5gethlEh15register_half_t():
C:\Users\ericw\AppData\Local\Temp\arduino_build_985276\sketch/regfile.h:75
            registers[addr % REG_COUNT] = o;
            return o;
        }

        REGW gethl(uint8_t addr, register_half_t half) {
            REGW v = registers[addr % REG_COUNT];
     636:	80 91 29 01 	lds	r24, 0x0129	; 0x800129 <rf+0x20>
     63a:	90 91 2a 01 	lds	r25, 0x012A	; 0x80012a <rf+0x21>
     63e:	a0 91 2b 01 	lds	r26, 0x012B	; 0x80012b <rf+0x22>
     642:	b0 91 2c 01 	lds	r27, 0x012C	; 0x80012c <rf+0x23>
sethl():
C:\Users\ericw\AppData\Local\Temp\arduino_build_985276\sketch/regfile.h:67
            } else {
                i <<= (sz * 4);
            }
            REGW o = registers[addr % REG_COUNT];

            o &= mask;
     646:	ac 01       	movw	r20, r24
     648:	bd 01       	movw	r22, r26
     64a:	44 27       	eor	r20, r20
     64c:	55 27       	eor	r21, r21
_ZN9regfile_cImLj14EE5gethlEh15register_half_t():
C:\Users\ericw\AppData\Local\Temp\arduino_build_985276\sketch/regfile.h:82
            if (half != register_bottom) {
                v >>= (sz * 4);
            }
            REGW halfmask = ~(0x0);
            halfmask >>= (sz * 4);
            v &= halfmask;
     64e:	aa 27       	eor	r26, r26
     650:	bb 27       	eor	r27, r27
doSecondWork():
C:\Users\ericw\Documents\GitHub\pidog2\attiny84_sketch\pidog2/pidog2.ino:131
            rf.set(REG_OFF_REMAINING,rf.get(REG_OFF_REM_RESETVAL));
            rf.sethl(REG_FIRECOUNTS,rf.gethl(REG_FIRECOUNTS,register_bottom)+1,register_bottom);
     652:	01 96       	adiw	r24, 0x01	; 1
     654:	a1 1d       	adc	r26, r1
     656:	b1 1d       	adc	r27, r1
sethl():
C:\Users\ericw\AppData\Local\Temp\arduino_build_985276\sketch/regfile.h:59

        REGW sethl(uint8_t addr, REGW i, register_half_t half) {
            size_t sz = sizeof(REGW);
            REGW mask = ~0; // all ones
            mask >>= (sz * 4);
            i &= mask;
     658:	aa 27       	eor	r26, r26
     65a:	bb 27       	eor	r27, r27
C:\Users\ericw\AppData\Local\Temp\arduino_build_985276\sketch/regfile.h:68
                i <<= (sz * 4);
            }
            REGW o = registers[addr % REG_COUNT];

            o &= mask;
            o |= i;
     65c:	84 2b       	or	r24, r20
     65e:	95 2b       	or	r25, r21
     660:	a6 2b       	or	r26, r22
     662:	b7 2b       	or	r27, r23
C:\Users\ericw\AppData\Local\Temp\arduino_build_985276\sketch/regfile.h:70

            registers[addr % REG_COUNT] = o;
     664:	80 93 29 01 	sts	0x0129, r24	; 0x800129 <rf+0x20>
     668:	90 93 2a 01 	sts	0x012A, r25	; 0x80012a <rf+0x21>
     66c:	a0 93 2b 01 	sts	0x012B, r26	; 0x80012b <rf+0x22>
     670:	b0 93 2c 01 	sts	0x012C, r27	; 0x80012c <rf+0x23>
doSecondWork():
C:\Users\ericw\Documents\GitHub\pidog2\attiny84_sketch\pidog2/pidog2.ino:137
        } else {
            if (on_rem < WARN_SECS) s |= _BV(STAT_LED_WARN);
            rf.set(REG_ON_REMAINING,on_rem-1);
        }
    }
    if ((s & _BV(STAT_WAKE_EN)) && (~s & _BV(STAT_PWR_ON))) {
     674:	c3 fe       	sbrs	r12, 3
     676:	6c c0       	rjmp	.+216    	; 0x750 <doTickWork()+0x286>
     678:	c5 fc       	sbrc	r12, 5
     67a:	6a c0       	rjmp	.+212    	; 0x750 <doTickWork()+0x286>
_ZN9regfile_cImLj14EE3getEh():
C:\Users\ericw\AppData\Local\Temp\arduino_build_985276\sketch/regfile.h:87
            v &= halfmask;
            return v;
        }

        REGW get(uint8_t addr) { 
            return registers[addr % REG_COUNT];
     67c:	80 91 11 01 	lds	r24, 0x0111	; 0x800111 <rf+0x8>
     680:	90 91 12 01 	lds	r25, 0x0112	; 0x800112 <rf+0x9>
     684:	a0 91 13 01 	lds	r26, 0x0113	; 0x800113 <rf+0xa>
     688:	b0 91 14 01 	lds	r27, 0x0114	; 0x800114 <rf+0xb>
doSecondWork():
C:\Users\ericw\Documents\GitHub\pidog2\attiny84_sketch\pidog2/pidog2.ino:139
        reg_t off_rem = rf.get(REG_OFF_REMAINING);
        if (!off_rem) {
     68c:	00 97       	sbiw	r24, 0x00	; 0
     68e:	a1 05       	cpc	r26, r1
     690:	b1 05       	cpc	r27, r1
     692:	09 f0       	breq	.+2      	; 0x696 <doTickWork()+0x1cc>
     694:	cb c0       	rjmp	.+406    	; 0x82c <doTickWork()+0x362>
_ZN9regfile_cImLj14EE5gethlEh15register_half_t():
C:\Users\ericw\AppData\Local\Temp\arduino_build_985276\sketch/regfile.h:75
            registers[addr % REG_COUNT] = o;
            return o;
        }

        REGW gethl(uint8_t addr, register_half_t half) {
            REGW v = registers[addr % REG_COUNT];
     696:	80 91 31 01 	lds	r24, 0x0131	; 0x800131 <rf+0x28>
     69a:	90 91 32 01 	lds	r25, 0x0132	; 0x800132 <rf+0x29>
     69e:	a0 91 33 01 	lds	r26, 0x0133	; 0x800133 <rf+0x2a>
     6a2:	b0 91 34 01 	lds	r27, 0x0134	; 0x800134 <rf+0x2b>
C:\Users\ericw\AppData\Local\Temp\arduino_build_985276\sketch/regfile.h:78
            size_t sz = sizeof(REGW);
            if (half != register_bottom) {
                v >>= (sz * 4);
     6a6:	4d 01       	movw	r8, r26
     6a8:	aa 24       	eor	r10, r10
     6aa:	bb 24       	eor	r11, r11
C:\Users\ericw\AppData\Local\Temp\arduino_build_985276\sketch/regfile.h:82
            }
            REGW halfmask = ~(0x0);
            halfmask >>= (sz * 4);
            v &= halfmask;
     6ac:	aa 27       	eor	r26, r26
     6ae:	bb 27       	eor	r27, r27
C:\Users\ericw\AppData\Local\Temp\arduino_build_985276\sketch/regfile.h:75
            registers[addr % REG_COUNT] = o;
            return o;
        }

        REGW gethl(uint8_t addr, register_half_t half) {
            REGW v = registers[addr % REG_COUNT];
     6b0:	40 91 21 01 	lds	r20, 0x0121	; 0x800121 <rf+0x18>
     6b4:	50 91 22 01 	lds	r21, 0x0122	; 0x800122 <rf+0x19>
     6b8:	60 91 23 01 	lds	r22, 0x0123	; 0x800123 <rf+0x1a>
     6bc:	70 91 24 01 	lds	r23, 0x0124	; 0x800124 <rf+0x1b>
C:\Users\ericw\AppData\Local\Temp\arduino_build_985276\sketch/regfile.h:82
            if (half != register_bottom) {
                v >>= (sz * 4);
            }
            REGW halfmask = ~(0x0);
            halfmask >>= (sz * 4);
            v &= halfmask;
     6c0:	2a 01       	movw	r4, r20
     6c2:	3b 01       	movw	r6, r22
     6c4:	66 24       	eor	r6, r6
     6c6:	77 24       	eor	r7, r7
doSecondWork():
C:\Users\ericw\Documents\GitHub\pidog2\attiny84_sketch\pidog2/pidog2.ino:146
            reg_t b_on_thresh = rf.gethl(REG_VSENSE_ON_THRESHOLD,register_bottom); 
            bool a_over = rf.gethl(REG_VSENSA_VSENSB,register_top) >= a_on_thresh;
            bool b_over = rf.gethl(REG_VSENSA_VSENSB,register_bottom) >= b_on_thresh;
            bool enable = (!a_on_thresh && !b_on_thresh)                   || 
                          (a_on_thresh && a_over && b_on_thresh && b_over) || 
                          (a_on_thresh && a_over && !b_on_thresh)          || 
     6c8:	81 14       	cp	r8, r1
     6ca:	91 04       	cpc	r9, r1
     6cc:	a1 04       	cpc	r10, r1
     6ce:	b1 04       	cpc	r11, r1
     6d0:	09 f0       	breq	.+2      	; 0x6d4 <doTickWork()+0x20a>
     6d2:	90 c0       	rjmp	.+288    	; 0x7f4 <doTickWork()+0x32a>
C:\Users\ericw\Documents\GitHub\pidog2\attiny84_sketch\pidog2/pidog2.ino:145
            reg_t a_on_thresh = rf.gethl(REG_VSENSE_ON_THRESHOLD,register_top);
            reg_t b_on_thresh = rf.gethl(REG_VSENSE_ON_THRESHOLD,register_bottom); 
            bool a_over = rf.gethl(REG_VSENSA_VSENSB,register_top) >= a_on_thresh;
            bool b_over = rf.gethl(REG_VSENSA_VSENSB,register_bottom) >= b_on_thresh;
            bool enable = (!a_on_thresh && !b_on_thresh)                   || 
                          (a_on_thresh && a_over && b_on_thresh && b_over) || 
     6d4:	00 97       	sbiw	r24, 0x00	; 0
     6d6:	a1 05       	cpc	r26, r1
     6d8:	b1 05       	cpc	r27, r1
     6da:	31 f0       	breq	.+12     	; 0x6e8 <doTickWork()+0x21e>
     6dc:	48 16       	cp	r4, r24
     6de:	59 06       	cpc	r5, r25
     6e0:	6a 06       	cpc	r6, r26
     6e2:	7b 06       	cpc	r7, r27
     6e4:	08 f4       	brcc	.+2      	; 0x6e8 <doTickWork()+0x21e>
     6e6:	8f c0       	rjmp	.+286    	; 0x806 <doTickWork()+0x33c>
C:\Users\ericw\Documents\GitHub\pidog2\attiny84_sketch\pidog2/pidog2.ino:150
                          (a_on_thresh && a_over && !b_on_thresh)          || 
                          (b_on_thresh && b_over && !a_on_thresh);
            if (enable == true) {
                #ifdef SERIAL_DEBUG
                srl.println("Powering on pi.");
     6e8:	61 e8       	ldi	r22, 0x81	; 129
     6ea:	70 e0       	ldi	r23, 0x00	; 0
     6ec:	8f ee       	ldi	r24, 0xEF	; 239
     6ee:	90 e0       	ldi	r25, 0x00	; 0
     6f0:	c7 de       	rcall	.-626    	; 0x480 <Print::println(char const*)>
     6f2:	2d eb       	ldi	r18, 0xBD	; 189
     6f4:	c2 22       	and	r12, r18
C:\Users\ericw\Documents\GitHub\pidog2\attiny84_sketch\pidog2/pidog2.ino:155
                #endif
                s |= _BV(STAT_WAKE_FIRED);
                s |= _BV(STAT_PWR_ON);
                s &= ~_BV(STAT_LED_WARN);
                s &= ~_BV(STAT_WDOG_FIRED);
     6f6:	30 e3       	ldi	r19, 0x30	; 48
     6f8:	c3 2a       	or	r12, r19
_ZN9regfile_cImLj14EE3setEhm():
C:\Users\ericw\AppData\Local\Temp\arduino_build_985276\sketch/regfile.h:99
        REGW setAnd(uint8_t addr, REGW val) {
            registers[addr % REG_COUNT] &= val;
            return get(addr);
        }
        REGW set(uint8_t addr, REGW val) {
            registers[addr % REG_COUNT] = val;
     6fa:	80 91 15 01 	lds	r24, 0x0115	; 0x800115 <rf+0xc>
     6fe:	90 91 16 01 	lds	r25, 0x0116	; 0x800116 <rf+0xd>
     702:	a0 91 17 01 	lds	r26, 0x0117	; 0x800117 <rf+0xe>
     706:	b0 91 18 01 	lds	r27, 0x0118	; 0x800118 <rf+0xf>
     70a:	80 93 0d 01 	sts	0x010D, r24	; 0x80010d <rf+0x4>
     70e:	90 93 0e 01 	sts	0x010E, r25	; 0x80010e <rf+0x5>
     712:	a0 93 0f 01 	sts	0x010F, r26	; 0x80010f <rf+0x6>
     716:	b0 93 10 01 	sts	0x0110, r27	; 0x800110 <rf+0x7>
_ZN9regfile_cImLj14EE5gethlEh15register_half_t():
C:\Users\ericw\AppData\Local\Temp\arduino_build_985276\sketch/regfile.h:75
            registers[addr % REG_COUNT] = o;
            return o;
        }

        REGW gethl(uint8_t addr, register_half_t half) {
            REGW v = registers[addr % REG_COUNT];
     71a:	80 91 29 01 	lds	r24, 0x0129	; 0x800129 <rf+0x20>
     71e:	90 91 2a 01 	lds	r25, 0x012A	; 0x80012a <rf+0x21>
     722:	a0 91 2b 01 	lds	r26, 0x012B	; 0x80012b <rf+0x22>
     726:	b0 91 2c 01 	lds	r27, 0x012C	; 0x80012c <rf+0x23>
sethl():
C:\Users\ericw\AppData\Local\Temp\arduino_build_985276\sketch/regfile.h:67
            } else {
                i <<= (sz * 4);
            }
            REGW o = registers[addr % REG_COUNT];

            o &= mask;
     72a:	ac 01       	movw	r20, r24
     72c:	bd 01       	movw	r22, r26
     72e:	66 27       	eor	r22, r22
     730:	77 27       	eor	r23, r23
doSecondWork():
C:\Users\ericw\Documents\GitHub\pidog2\attiny84_sketch\pidog2/pidog2.ino:157
                rf.set(REG_ON_REMAINING,rf.get(REG_ON_REM_RESETVAL));
                rf.sethl(REG_FIRECOUNTS,rf.gethl(REG_FIRECOUNTS,register_top)+1,register_top);
     732:	88 27       	eor	r24, r24
     734:	99 27       	eor	r25, r25
sethl():
C:\Users\ericw\AppData\Local\Temp\arduino_build_985276\sketch/regfile.h:68
            o |= i;
     736:	11 96       	adiw	r26, 0x01	; 1
     738:	84 2b       	or	r24, r20
     73a:	95 2b       	or	r25, r21
     73c:	a6 2b       	or	r26, r22
     73e:	b7 2b       	or	r27, r23
C:\Users\ericw\AppData\Local\Temp\arduino_build_985276\sketch/regfile.h:70

            registers[addr % REG_COUNT] = o;
     740:	80 93 29 01 	sts	0x0129, r24	; 0x800129 <rf+0x20>
     744:	90 93 2a 01 	sts	0x012A, r25	; 0x80012a <rf+0x21>
     748:	a0 93 2b 01 	sts	0x012B, r26	; 0x80012b <rf+0x22>
     74c:	b0 93 2c 01 	sts	0x012C, r27	; 0x80012c <rf+0x23>
_ZN9regfile_cImLj14EE3setEhm():
C:\Users\ericw\AppData\Local\Temp\arduino_build_985276\sketch/regfile.h:99
        REGW setAnd(uint8_t addr, REGW val) {
            registers[addr % REG_COUNT] &= val;
            return get(addr);
        }
        REGW set(uint8_t addr, REGW val) {
            registers[addr % REG_COUNT] = val;
     750:	c0 92 09 01 	sts	0x0109, r12	; 0x800109 <rf>
     754:	d0 92 0a 01 	sts	0x010A, r13	; 0x80010a <rf+0x1>
     758:	e0 92 0b 01 	sts	0x010B, r14	; 0x80010b <rf+0x2>
     75c:	f0 92 0c 01 	sts	0x010C, r15	; 0x80010c <rf+0x3>
doSecondWork():
C:\Users\ericw\Documents\GitHub\pidog2\attiny84_sketch\pidog2/pidog2.ino:171
    }

    rf.set(REG_STATUS,s);

    // Only write to the power status registers if needed.
    if (pwr_state != bool(s & _BV(STAT_PWR_ON))) {
     760:	81 e0       	ldi	r24, 0x01	; 1
     762:	b7 01       	movw	r22, r14
     764:	a6 01       	movw	r20, r12
     766:	40 72       	andi	r20, 0x20	; 32
     768:	55 27       	eor	r21, r21
     76a:	66 27       	eor	r22, r22
     76c:	77 27       	eor	r23, r23
     76e:	c5 fe       	sbrs	r12, 5
     770:	80 e0       	ldi	r24, 0x00	; 0
     772:	38 16       	cp	r3, r24
     774:	09 f4       	brne	.+2      	; 0x778 <doTickWork()+0x2ae>
     776:	75 c0       	rjmp	.+234    	; 0x862 <doTickWork()+0x398>
C:\Users\ericw\Documents\GitHub\pidog2\attiny84_sketch\pidog2/pidog2.ino:173
          // NB the power pin has negative polarity
          if (~s & _BV(STAT_PWR_ON)) { digitalWrite(PIN_PWR, 1); } //Turn power off
     778:	45 2b       	or	r20, r21
     77a:	46 2b       	or	r20, r22
     77c:	47 2b       	or	r20, r23
     77e:	09 f0       	breq	.+2      	; 0x782 <doTickWork()+0x2b8>
     780:	68 c0       	rjmp	.+208    	; 0x852 <doTickWork()+0x388>
     782:	61 e0       	ldi	r22, 0x01	; 1
C:\Users\ericw\Documents\GitHub\pidog2\attiny84_sketch\pidog2/pidog2.ino:183
                for (uint8_t j=0;j<i;j++) { dummy++; } //Increasing delay
                PORTA |= B10000000; //OFF
                for (uint8_t j=i;j<255;j++) { dummy++; } //Decreasing delay
            }
            PORTA &= B01111111; // Leave it ON
          } else { digitalWrite(PIN_PWR, 0); } //Switch power on immediately
     784:	83 e0       	ldi	r24, 0x03	; 3
     786:	1d dd       	rcall	.-1478   	; 0x1c2 <digitalWrite>
     788:	6c c0       	rjmp	.+216    	; 0x862 <doTickWork()+0x398>
C:\Users\ericw\Documents\GitHub\pidog2\attiny84_sketch\pidog2/pidog2.ino:109
    s &= ~(_BV(STAT_WDRF) | _BV(STAT_BORF) | _BV(STAT_EXTRF) | _BV(STAT_PORF));
    if ( s & _BV(STAT_WDCLR)) { // rpi wants us to clear MCUSR
      MCUSR =0;
      s &= ~_BV(STAT_WDCLR);
    } else { // write the MCUSR low bits to the status register
      s |= uint32_t ((MCUSR & 0xF) << STAT_PORF);
     78a:	84 b7       	in	r24, 0x34	; 52
C:\Users\ericw\Documents\GitHub\pidog2\attiny84_sketch\pidog2/pidog2.ino:104

void doSecondWork() {
    uint32_t s = rf.get(REG_STATUS);
    bool pwr_state = s & _BV(STAT_PWR_ON);
    // Clear these status register bits and copy in the lower half of the MCUSR
    s &= ~(_BV(STAT_WDRF) | _BV(STAT_BORF) | _BV(STAT_EXTRF) | _BV(STAT_PORF));
     78c:	b7 01       	movw	r22, r14
     78e:	a6 01       	movw	r20, r12
     790:	53 7c       	andi	r21, 0xC3	; 195
C:\Users\ericw\Documents\GitHub\pidog2\attiny84_sketch\pidog2/pidog2.ino:109
    if ( s & _BV(STAT_WDCLR)) { // rpi wants us to clear MCUSR
      MCUSR =0;
      s &= ~_BV(STAT_WDCLR);
    } else { // write the MCUSR low bits to the status register
      s |= uint32_t ((MCUSR & 0xF) << STAT_PORF);
     792:	90 e0       	ldi	r25, 0x00	; 0
     794:	98 2f       	mov	r25, r24
     796:	88 27       	eor	r24, r24
     798:	99 0f       	add	r25, r25
     79a:	99 0f       	add	r25, r25
     79c:	88 27       	eor	r24, r24
     79e:	9c 73       	andi	r25, 0x3C	; 60
     7a0:	09 2e       	mov	r0, r25
     7a2:	00 0c       	add	r0, r0
     7a4:	aa 0b       	sbc	r26, r26
     7a6:	bb 0b       	sbc	r27, r27
     7a8:	6c 01       	movw	r12, r24
     7aa:	7d 01       	movw	r14, r26
     7ac:	c4 2a       	or	r12, r20
     7ae:	d5 2a       	or	r13, r21
     7b0:	e6 2a       	or	r14, r22
     7b2:	f7 2a       	or	r15, r23
     7b4:	c5 ce       	rjmp	.-630    	; 0x540 <doTickWork()+0x76>
C:\Users\ericw\Documents\GitHub\pidog2\attiny84_sketch\pidog2/pidog2.ino:125
            srl.println("Powering off pi.");
            #endif
            s |=  _BV(STAT_WDOG_FIRED);
            s &= ~(_BV(STAT_WDOG_FIRE_CODE) | _BV(STAT_WDOG_FIRE_CODE+1));                        //00b - on-remaining timer expired 
            if (a_under && b_under) s |= (_BV(STAT_WDOG_FIRE_CODE) | _BV(STAT_WDOG_FIRE_CODE+1)); //11b - vsensa & vsensb dropped below threshold 
            else if (a_under)       s |= _BV(STAT_WDOG_FIRE_CODE);                                //01b - vsensa dropped below threshold
     7b6:	e2 e8       	ldi	r30, 0x82	; 130
     7b8:	ce 2a       	or	r12, r30
     7ba:	2b cf       	rjmp	.-426    	; 0x612 <doTickWork()+0x148>
C:\Users\ericw\Documents\GitHub\pidog2\attiny84_sketch\pidog2/pidog2.ino:126
            else if (b_under)       s |= _BV(STAT_WDOG_FIRE_CODE+1);                              //10b - vsensb dropped below threshold
     7bc:	01 11       	cpse	r16, r1
     7be:	03 c0       	rjmp	.+6      	; 0x7c6 <doTickWork()+0x2fc>
C:\Users\ericw\Documents\GitHub\pidog2\attiny84_sketch\pidog2/pidog2.ino:123
        if ( !on_rem || a_under || b_under) {
            #ifdef SERIAL_DEBUG
            srl.println("Powering off pi.");
            #endif
            s |=  _BV(STAT_WDOG_FIRED);
            s &= ~(_BV(STAT_WDOG_FIRE_CODE) | _BV(STAT_WDOG_FIRE_CODE+1));                        //00b - on-remaining timer expired 
     7c0:	68 94       	set
     7c2:	c1 f8       	bld	r12, 1
     7c4:	26 cf       	rjmp	.-436    	; 0x612 <doTickWork()+0x148>
C:\Users\ericw\Documents\GitHub\pidog2\attiny84_sketch\pidog2/pidog2.ino:126
            if (a_under && b_under) s |= (_BV(STAT_WDOG_FIRE_CODE) | _BV(STAT_WDOG_FIRE_CODE+1)); //11b - vsensa & vsensb dropped below threshold 
            else if (a_under)       s |= _BV(STAT_WDOG_FIRE_CODE);                                //01b - vsensa dropped below threshold
            else if (b_under)       s |= _BV(STAT_WDOG_FIRE_CODE+1);                              //10b - vsensb dropped below threshold
     7c6:	68 94       	set
     7c8:	c1 f8       	bld	r12, 1
     7ca:	d0 f8       	bld	r13, 0
     7cc:	22 cf       	rjmp	.-444    	; 0x612 <doTickWork()+0x148>
C:\Users\ericw\Documents\GitHub\pidog2\attiny84_sketch\pidog2/pidog2.ino:133
            s &= ~_BV(STAT_PWR_ON);
            s &= ~_BV(STAT_LED_WARN);
            rf.set(REG_OFF_REMAINING,rf.get(REG_OFF_REM_RESETVAL));
            rf.sethl(REG_FIRECOUNTS,rf.gethl(REG_FIRECOUNTS,register_bottom)+1,register_bottom);
        } else {
            if (on_rem < WARN_SECS) s |= _BV(STAT_LED_WARN);
     7ce:	8e 31       	cpi	r24, 0x1E	; 30
     7d0:	91 05       	cpc	r25, r1
     7d2:	a1 05       	cpc	r26, r1
     7d4:	b1 05       	cpc	r27, r1
     7d6:	10 f4       	brcc	.+4      	; 0x7dc <doTickWork()+0x312>
     7d8:	68 94       	set
     7da:	c6 f8       	bld	r12, 6
C:\Users\ericw\Documents\GitHub\pidog2\attiny84_sketch\pidog2/pidog2.ino:134
            rf.set(REG_ON_REMAINING,on_rem-1);
     7dc:	01 97       	sbiw	r24, 0x01	; 1
     7de:	a1 09       	sbc	r26, r1
     7e0:	b1 09       	sbc	r27, r1
_ZN9regfile_cImLj14EE3setEhm():
C:\Users\ericw\AppData\Local\Temp\arduino_build_985276\sketch/regfile.h:99
     7e2:	80 93 0d 01 	sts	0x010D, r24	; 0x80010d <rf+0x4>
     7e6:	90 93 0e 01 	sts	0x010E, r25	; 0x80010e <rf+0x5>
     7ea:	a0 93 0f 01 	sts	0x010F, r26	; 0x80010f <rf+0x6>
     7ee:	b0 93 10 01 	sts	0x0110, r27	; 0x800110 <rf+0x7>
     7f2:	40 cf       	rjmp	.-384    	; 0x674 <doTickWork()+0x1aa>
_ZN9regfile_cImLj14EE5gethlEh15register_half_t():
C:\Users\ericw\AppData\Local\Temp\arduino_build_985276\sketch/regfile.h:78

        REGW gethl(uint8_t addr, register_half_t half) {
            REGW v = registers[addr % REG_COUNT];
            size_t sz = sizeof(REGW);
            if (half != register_bottom) {
                v >>= (sz * 4);
     7f4:	ab 01       	movw	r20, r22
     7f6:	66 27       	eor	r22, r22
     7f8:	77 27       	eor	r23, r23
doSecondWork():
C:\Users\ericw\Documents\GitHub\pidog2\attiny84_sketch\pidog2/pidog2.ino:145
            reg_t a_on_thresh = rf.gethl(REG_VSENSE_ON_THRESHOLD,register_top);
            reg_t b_on_thresh = rf.gethl(REG_VSENSE_ON_THRESHOLD,register_bottom); 
            bool a_over = rf.gethl(REG_VSENSA_VSENSB,register_top) >= a_on_thresh;
            bool b_over = rf.gethl(REG_VSENSA_VSENSB,register_bottom) >= b_on_thresh;
            bool enable = (!a_on_thresh && !b_on_thresh)                   || 
                          (a_on_thresh && a_over && b_on_thresh && b_over) || 
     7fa:	48 15       	cp	r20, r8
     7fc:	59 05       	cpc	r21, r9
     7fe:	6a 05       	cpc	r22, r10
     800:	7b 05       	cpc	r23, r11
     802:	08 f0       	brcs	.+2      	; 0x806 <doTickWork()+0x33c>
     804:	67 cf       	rjmp	.-306    	; 0x6d4 <doTickWork()+0x20a>
_ZN9regfile_cImLj14EE3setEhm():
C:\Users\ericw\AppData\Local\Temp\arduino_build_985276\sketch/regfile.h:99
        REGW setAnd(uint8_t addr, REGW val) {
            registers[addr % REG_COUNT] &= val;
            return get(addr);
        }
        REGW set(uint8_t addr, REGW val) {
            registers[addr % REG_COUNT] = val;
     806:	80 91 19 01 	lds	r24, 0x0119	; 0x800119 <rf+0x10>
     80a:	90 91 1a 01 	lds	r25, 0x011A	; 0x80011a <rf+0x11>
     80e:	a0 91 1b 01 	lds	r26, 0x011B	; 0x80011b <rf+0x12>
     812:	b0 91 1c 01 	lds	r27, 0x011C	; 0x80011c <rf+0x13>
     816:	80 93 11 01 	sts	0x0111, r24	; 0x800111 <rf+0x8>
     81a:	90 93 12 01 	sts	0x0112, r25	; 0x800112 <rf+0x9>
     81e:	a0 93 13 01 	sts	0x0113, r26	; 0x800113 <rf+0xa>
     822:	b0 93 14 01 	sts	0x0114, r27	; 0x800114 <rf+0xb>
doSecondWork():
C:\Users\ericw\Documents\GitHub\pidog2\attiny84_sketch\pidog2/pidog2.ino:160
                s &= ~_BV(STAT_WDOG_FIRED);
                rf.set(REG_ON_REMAINING,rf.get(REG_ON_REM_RESETVAL));
                rf.sethl(REG_FIRECOUNTS,rf.gethl(REG_FIRECOUNTS,register_top)+1,register_top);
            } else if ( a_on_thresh || b_on_thresh ) {
              rf.set(REG_OFF_REMAINING,rf.get(REG_OFF_REM_RESETVAL));
              s &= ~_BV(STAT_LED_WARN);
     826:	e8 94       	clt
     828:	c6 f8       	bld	r12, 6
     82a:	92 cf       	rjmp	.-220    	; 0x750 <doTickWork()+0x286>
C:\Users\ericw\Documents\GitHub\pidog2\attiny84_sketch\pidog2/pidog2.ino:163
            }
        } else {
            if (off_rem < WARN_SECS) s |= _BV(STAT_LED_WARN);
     82c:	8e 31       	cpi	r24, 0x1E	; 30
     82e:	91 05       	cpc	r25, r1
     830:	a1 05       	cpc	r26, r1
     832:	b1 05       	cpc	r27, r1
     834:	10 f4       	brcc	.+4      	; 0x83a <doTickWork()+0x370>
     836:	68 94       	set
     838:	c6 f8       	bld	r12, 6
C:\Users\ericw\Documents\GitHub\pidog2\attiny84_sketch\pidog2/pidog2.ino:164
            rf.set(REG_OFF_REMAINING,off_rem-1);
     83a:	01 97       	sbiw	r24, 0x01	; 1
     83c:	a1 09       	sbc	r26, r1
     83e:	b1 09       	sbc	r27, r1
_ZN9regfile_cImLj14EE3setEhm():
C:\Users\ericw\AppData\Local\Temp\arduino_build_985276\sketch/regfile.h:99
     840:	80 93 11 01 	sts	0x0111, r24	; 0x800111 <rf+0x8>
     844:	90 93 12 01 	sts	0x0112, r25	; 0x800112 <rf+0x9>
     848:	a0 93 13 01 	sts	0x0113, r26	; 0x800113 <rf+0xa>
     84c:	b0 93 14 01 	sts	0x0114, r27	; 0x800114 <rf+0xb>
     850:	7f cf       	rjmp	.-258    	; 0x750 <doTickWork()+0x286>
doSecondWork():
C:\Users\ericw\Documents\GitHub\pidog2\attiny84_sketch\pidog2/pidog2.ino:174

    // Only write to the power status registers if needed.
    if (pwr_state != bool(s & _BV(STAT_PWR_ON))) {
          // NB the power pin has negative polarity
          if (~s & _BV(STAT_PWR_ON)) { digitalWrite(PIN_PWR, 1); } //Turn power off
          else if (s & _BV(STAT_SOFT_START)) { //Feather the power pin on           
     852:	d1 fe       	sbrs	r13, 1
     854:	9a c0       	rjmp	.+308    	; 0x98a <doTickWork()+0x4c0>
     856:	8f ef       	ldi	r24, 0xFF	; 255
C:\Users\ericw\Documents\GitHub\pidog2\attiny84_sketch\pidog2/pidog2.ino:177
            uint32_t dummy = 0;
            for (uint8_t i=0;i<255;i++) {
                PORTA &= B01111111; //ON
     858:	df 98       	cbi	0x1b, 7	; 27
C:\Users\ericw\Documents\GitHub\pidog2\attiny84_sketch\pidog2/pidog2.ino:179
                for (uint8_t j=0;j<i;j++) { dummy++; } //Increasing delay
                PORTA |= B10000000; //OFF
     85a:	df 9a       	sbi	0x1b, 7	; 27
     85c:	81 50       	subi	r24, 0x01	; 1
C:\Users\ericw\Documents\GitHub\pidog2\attiny84_sketch\pidog2/pidog2.ino:176
    if (pwr_state != bool(s & _BV(STAT_PWR_ON))) {
          // NB the power pin has negative polarity
          if (~s & _BV(STAT_PWR_ON)) { digitalWrite(PIN_PWR, 1); } //Turn power off
          else if (s & _BV(STAT_SOFT_START)) { //Feather the power pin on           
            uint32_t dummy = 0;
            for (uint8_t i=0;i<255;i++) {
     85e:	e1 f7       	brne	.-8      	; 0x858 <doTickWork()+0x38e>
C:\Users\ericw\Documents\GitHub\pidog2\attiny84_sketch\pidog2/pidog2.ino:182
                PORTA &= B01111111; //ON
                for (uint8_t j=0;j<i;j++) { dummy++; } //Increasing delay
                PORTA |= B10000000; //OFF
                for (uint8_t j=i;j<255;j++) { dummy++; } //Decreasing delay
            }
            PORTA &= B01111111; // Leave it ON
     860:	df 98       	cbi	0x1b, 7	; 27
dump():
C:\Users\ericw\AppData\Local\Temp\arduino_build_985276\sketch/regfile.h:44
        void clear() {
          for (uint8_t i=0;i<REG_COUNT;i++) registers[i] = 0;
        };

        void dump() {
            if (ser) {
     862:	80 91 41 01 	lds	r24, 0x0141	; 0x800141 <rf+0x38>
     866:	90 91 42 01 	lds	r25, 0x0142	; 0x800142 <rf+0x39>
     86a:	00 97       	sbiw	r24, 0x00	; 0
     86c:	09 f4       	brne	.+2      	; 0x870 <doTickWork()+0x3a6>
     86e:	75 c0       	rjmp	.+234    	; 0x95a <doTickWork()+0x490>
print():
C:\Users\ericw\AppData\Local\Arduino15\packages\ATTinyCore\hardware\avr\1.4.1\cores\tiny/Print.cpp:53
  return n;
}

size_t Print::print(const char str[])
{
  return write(str);
     870:	61 e9       	ldi	r22, 0x91	; 145
     872:	70 e0       	ldi	r23, 0x00	; 0
     874:	f6 dd       	rcall	.-1044   	; 0x462 <Print::write(char const*)>
     876:	a9 e0       	ldi	r26, 0x09	; 9
     878:	8a 2e       	mov	r8, r26
     87a:	a1 e0       	ldi	r26, 0x01	; 1
     87c:	9a 2e       	mov	r9, r26
_Z10doTickWorkv():
C:\Users\ericw\AppData\Local\Temp\arduino_build_985276\sketch/regfile.h:46
                ser->print("[ ");
                for (uint8_t i=0; i< REG_COUNT; i++) {
     87e:	10 e0       	ldi	r17, 0x00	; 0
print():
C:\Users\ericw\AppData\Local\Arduino15\packages\ATTinyCore\hardware\avr\1.4.1\cores\tiny/Print.cpp:53
     880:	64 e9       	ldi	r22, 0x94	; 148
     882:	70 e0       	ldi	r23, 0x00	; 0
     884:	80 91 41 01 	lds	r24, 0x0141	; 0x800141 <rf+0x38>
     888:	90 91 42 01 	lds	r25, 0x0142	; 0x800142 <rf+0x39>
     88c:	ea dd       	rcall	.-1068   	; 0x462 <Print::write(char const*)>
dump():
C:\Users\ericw\AppData\Local\Temp\arduino_build_985276\sketch/regfile.h:48
                    ser->print("0x");
                    pp32hex(registers[i]);
     88e:	f4 01       	movw	r30, r8
     890:	41 90       	ld	r4, Z+
     892:	51 90       	ld	r5, Z+
     894:	61 90       	ld	r6, Z+
     896:	71 90       	ld	r7, Z+
     898:	4f 01       	movw	r8, r30
     89a:	f8 e1       	ldi	r31, 0x18	; 24
     89c:	af 2e       	mov	r10, r31
     89e:	b1 2c       	mov	r11, r1
_ZN9regfile_cImLj14EE6pp8hexEh.isra.7():
C:\Users\ericw\AppData\Local\Temp\arduino_build_985276\sketch/regfile.h:19
class regfile_c {
    private:
        REGW registers[REG_COUNT];
        Stream *ser;
        void pp8hex(uint8_t i) {
            if (ser) {
     8a0:	80 91 41 01 	lds	r24, 0x0141	; 0x800141 <rf+0x38>
     8a4:	90 91 42 01 	lds	r25, 0x0142	; 0x800142 <rf+0x39>
     8a8:	00 97       	sbiw	r24, 0x00	; 0
     8aa:	d1 f1       	breq	.+116    	; 0x920 <doTickWork()+0x456>
pp32hex():
C:\Users\ericw\AppData\Local\Temp\arduino_build_985276\sketch/regfile.h:27
            }
        }
        void pp32hex(REGW i) {
            uint8_t j = sizeof(REGW);
            while (j) {
                pp8hex((uint8_t)((i >> ((j-1)*8)) & 0xff));
     8ac:	73 01       	movw	r14, r6
     8ae:	62 01       	movw	r12, r4
     8b0:	0a 2c       	mov	r0, r10
     8b2:	04 c0       	rjmp	.+8      	; 0x8bc <doTickWork()+0x3f2>
     8b4:	f6 94       	lsr	r15
     8b6:	e7 94       	ror	r14
     8b8:	d7 94       	ror	r13
     8ba:	c7 94       	ror	r12
     8bc:	0a 94       	dec	r0
     8be:	d2 f7       	brpl	.-12     	; 0x8b4 <doTickWork()+0x3ea>
_ZN9regfile_cImLj14EE6pp8hexEh.isra.7():
C:\Users\ericw\AppData\Local\Temp\arduino_build_985276\sketch/regfile.h:20
    private:
        REGW registers[REG_COUNT];
        Stream *ser;
        void pp8hex(uint8_t i) {
            if (ser) {
                if (i < 16) ser->print("0");
     8c0:	ff e0       	ldi	r31, 0x0F	; 15
     8c2:	fc 15       	cp	r31, r12
     8c4:	18 f0       	brcs	.+6      	; 0x8cc <doTickWork()+0x402>
print():
C:\Users\ericw\AppData\Local\Arduino15\packages\ATTinyCore\hardware\avr\1.4.1\cores\tiny/Print.cpp:53
     8c6:	67 e9       	ldi	r22, 0x97	; 151
     8c8:	70 e0       	ldi	r23, 0x00	; 0
     8ca:	cb dd       	rcall	.-1130   	; 0x462 <Print::write(char const*)>
_ZN9regfile_cImLj14EE6pp8hexEh.isra.7():
C:\Users\ericw\AppData\Local\Temp\arduino_build_985276\sketch/regfile.h:21
                ser->print(i,HEX);
     8cc:	40 91 41 01 	lds	r20, 0x0141	; 0x800141 <rf+0x38>
     8d0:	50 91 42 01 	lds	r21, 0x0142	; 0x800142 <rf+0x39>
     8d4:	dd 24       	eor	r13, r13
     8d6:	ee 24       	eor	r14, r14
     8d8:	ff 24       	eor	r15, r15
printNumber():
C:\Users\ericw\AppData\Local\Arduino15\packages\ATTinyCore\hardware\avr\1.4.1\cores\tiny/Print.cpp:261

size_t Print::printNumber(unsigned long n, uint8_t base) {
  char buf[8 * sizeof(long) + 1]; // Assumes 8-bit chars plus zero byte.
  char *str = &buf[sizeof(buf) - 1];

  *str = '\0';
     8da:	19 a2       	std	Y+33, r1	; 0x21
     8dc:	be 01       	movw	r22, r28
     8de:	6f 5d       	subi	r22, 0xDF	; 223
     8e0:	7f 4f       	sbci	r23, 0xFF	; 255
C:\Users\ericw\AppData\Local\Arduino15\packages\ATTinyCore\hardware\avr\1.4.1\cores\tiny/Print.cpp:268
  // prevent crash if called with base == 1
  if (base < 2) base = 10;

  do {
    unsigned long m = n;
    n /= base;
     8e2:	d7 01       	movw	r26, r14
     8e4:	c6 01       	movw	r24, r12
     8e6:	e4 e0       	ldi	r30, 0x04	; 4
     8e8:	b6 95       	lsr	r27
     8ea:	a7 95       	ror	r26
     8ec:	97 95       	ror	r25
     8ee:	87 95       	ror	r24
     8f0:	ea 95       	dec	r30
     8f2:	d1 f7       	brne	.-12     	; 0x8e8 <doTickWork()+0x41e>
C:\Users\ericw\AppData\Local\Arduino15\packages\ATTinyCore\hardware\avr\1.4.1\cores\tiny/Print.cpp:269
    char c = m - base * n;
     8f4:	28 2f       	mov	r18, r24
     8f6:	22 95       	swap	r18
     8f8:	20 7f       	andi	r18, 0xF0	; 240
     8fa:	3c 2d       	mov	r19, r12
     8fc:	32 1b       	sub	r19, r18
     8fe:	23 2f       	mov	r18, r19
C:\Users\ericw\AppData\Local\Arduino15\packages\ATTinyCore\hardware\avr\1.4.1\cores\tiny/Print.cpp:270
    *--str = c < 10 ? c + '0' : c + 'A' - 10;
     900:	3a 30       	cpi	r19, 0x0A	; 10
     902:	0c f0       	brlt	.+2      	; 0x906 <doTickWork()+0x43c>
     904:	44 c0       	rjmp	.+136    	; 0x98e <doTickWork()+0x4c4>
     906:	20 5d       	subi	r18, 0xD0	; 208
     908:	fb 01       	movw	r30, r22
     90a:	22 93       	st	-Z, r18
     90c:	bf 01       	movw	r22, r30
     90e:	6c 01       	movw	r12, r24
     910:	7d 01       	movw	r14, r26
C:\Users\ericw\AppData\Local\Arduino15\packages\ATTinyCore\hardware\avr\1.4.1\cores\tiny/Print.cpp:271
  } while(n);
     912:	c1 14       	cp	r12, r1
     914:	d1 04       	cpc	r13, r1
     916:	e1 04       	cpc	r14, r1
     918:	f1 04       	cpc	r15, r1
     91a:	19 f7       	brne	.-58     	; 0x8e2 <doTickWork()+0x418>
C:\Users\ericw\AppData\Local\Arduino15\packages\ATTinyCore\hardware\avr\1.4.1\cores\tiny/Print.cpp:273

  return write(str);
     91c:	ca 01       	movw	r24, r20
     91e:	a1 dd       	rcall	.-1214   	; 0x462 <Print::write(char const*)>
     920:	f8 e0       	ldi	r31, 0x08	; 8
     922:	af 1a       	sub	r10, r31
     924:	b1 08       	sbc	r11, r1
pp32hex():
C:\Users\ericw\AppData\Local\Temp\arduino_build_985276\sketch/regfile.h:26
            }
        }
        void pp32hex(REGW i) {
            uint8_t j = sizeof(REGW);
            while (j) {
     926:	28 ef       	ldi	r18, 0xF8	; 248
     928:	a2 16       	cp	r10, r18
     92a:	2f ef       	ldi	r18, 0xFF	; 255
     92c:	b2 06       	cpc	r11, r18
     92e:	09 f0       	breq	.+2      	; 0x932 <doTickWork()+0x468>
     930:	b7 cf       	rjmp	.-146    	; 0x8a0 <doTickWork()+0x3d6>
     932:	80 91 41 01 	lds	r24, 0x0141	; 0x800141 <rf+0x38>
     936:	90 91 42 01 	lds	r25, 0x0142	; 0x800142 <rf+0x39>
dump():
C:\Users\ericw\AppData\Local\Temp\arduino_build_985276\sketch/regfile.h:49
            if (ser) {
                ser->print("[ ");
                for (uint8_t i=0; i< REG_COUNT; i++) {
                    ser->print("0x");
                    pp32hex(registers[i]);
                    if (i < (REG_COUNT-1)) ser->print(", ");
     93a:	1d 30       	cpi	r17, 0x0D	; 13
     93c:	19 f0       	breq	.+6      	; 0x944 <doTickWork()+0x47a>
print():
C:\Users\ericw\AppData\Local\Arduino15\packages\ATTinyCore\hardware\avr\1.4.1\cores\tiny/Print.cpp:53
  return n;
}

size_t Print::print(const char str[])
{
  return write(str);
     93e:	69 e9       	ldi	r22, 0x99	; 153
     940:	70 e0       	ldi	r23, 0x00	; 0
     942:	8f dd       	rcall	.-1250   	; 0x462 <Print::write(char const*)>
dump():
C:\Users\ericw\AppData\Local\Temp\arduino_build_985276\sketch/regfile.h:46
        };

        void dump() {
            if (ser) {
                ser->print("[ ");
                for (uint8_t i=0; i< REG_COUNT; i++) {
     944:	1f 5f       	subi	r17, 0xFF	; 255
     946:	1e 30       	cpi	r17, 0x0E	; 14
     948:	09 f0       	breq	.+2      	; 0x94c <doTickWork()+0x482>
     94a:	9a cf       	rjmp	.-204    	; 0x880 <doTickWork()+0x3b6>
C:\Users\ericw\AppData\Local\Temp\arduino_build_985276\sketch/regfile.h:51
                    ser->print("0x");
                    pp32hex(registers[i]);
                    if (i < (REG_COUNT-1)) ser->print(", ");
                }
                ser->println(" ]");
     94c:	6c e9       	ldi	r22, 0x9C	; 156
     94e:	70 e0       	ldi	r23, 0x00	; 0
     950:	80 91 41 01 	lds	r24, 0x0141	; 0x800141 <rf+0x38>
     954:	90 91 42 01 	lds	r25, 0x0142	; 0x800142 <rf+0x39>
     958:	93 dd       	rcall	.-1242   	; 0x480 <Print::println(char const*)>
_Z10doTickWorkv():
C:\Users\ericw\Documents\GitHub\pidog2\attiny84_sketch\pidog2/pidog2.ino:211
    }
   
    adcreader.doRead();
    return;

}
     95a:	a1 96       	adiw	r28, 0x21	; 33
     95c:	0f b6       	in	r0, 0x3f	; 63
     95e:	f8 94       	cli
     960:	de bf       	out	0x3e, r29	; 62
     962:	0f be       	out	0x3f, r0	; 63
     964:	cd bf       	out	0x3d, r28	; 61
     966:	df 91       	pop	r29
     968:	cf 91       	pop	r28
     96a:	1f 91       	pop	r17
     96c:	0f 91       	pop	r16
     96e:	ff 90       	pop	r15
     970:	ef 90       	pop	r14
     972:	df 90       	pop	r13
     974:	cf 90       	pop	r12
     976:	bf 90       	pop	r11
     978:	af 90       	pop	r10
     97a:	9f 90       	pop	r9
     97c:	8f 90       	pop	r8
     97e:	7f 90       	pop	r7
     980:	6f 90       	pop	r6
     982:	5f 90       	pop	r5
     984:	4f 90       	pop	r4
     986:	3f 90       	pop	r3
     988:	08 95       	ret
doSecondWork():
C:\Users\ericw\Documents\GitHub\pidog2\attiny84_sketch\pidog2/pidog2.ino:183
                for (uint8_t j=0;j<i;j++) { dummy++; } //Increasing delay
                PORTA |= B10000000; //OFF
                for (uint8_t j=i;j<255;j++) { dummy++; } //Decreasing delay
            }
            PORTA &= B01111111; // Leave it ON
          } else { digitalWrite(PIN_PWR, 0); } //Switch power on immediately
     98a:	60 e0       	ldi	r22, 0x00	; 0
     98c:	fb ce       	rjmp	.-522    	; 0x784 <doTickWork()+0x2ba>
printNumber():
C:\Users\ericw\AppData\Local\Arduino15\packages\ATTinyCore\hardware\avr\1.4.1\cores\tiny/Print.cpp:270

  do {
    unsigned long m = n;
    n /= base;
    char c = m - base * n;
    *--str = c < 10 ? c + '0' : c + 'A' - 10;
     98e:	29 5c       	subi	r18, 0xC9	; 201
     990:	bb cf       	rjmp	.-138    	; 0x908 <doTickWork()+0x43e>
doRead():
C:\Users\ericw\AppData\Local\Temp\arduino_build_985276\sketch/adcReader.h:26
;
        uint8_t doRead() {
            reg_names_t r = _REG_INVALID;
            reg_t v       = 0xdeadbeef;
            register_half_t h = register_bottom;
            switch (next % 6) {
     992:	80 91 d2 00 	lds	r24, 0x00D2	; 0x8000d2 <adcreader>
     996:	66 e0       	ldi	r22, 0x06	; 6
     998:	3b d3       	rcall	.+1654   	; 0x1010 <__udivmodqi4>
     99a:	93 30       	cpi	r25, 0x03	; 3
     99c:	09 f4       	brne	.+2      	; 0x9a0 <doTickWork()+0x4d6>
     99e:	5a c0       	rjmp	.+180    	; 0xa54 <doTickWork()+0x58a>
     9a0:	98 f5       	brcc	.+102    	; 0xa08 <doTickWork()+0x53e>
     9a2:	91 30       	cpi	r25, 0x01	; 1
     9a4:	09 f4       	brne	.+2      	; 0x9a8 <doTickWork()+0x4de>
     9a6:	3f c0       	rjmp	.+126    	; 0xa26 <doTickWork()+0x55c>
     9a8:	92 30       	cpi	r25, 0x02	; 2
     9aa:	09 f4       	brne	.+2      	; 0x9ae <doTickWork()+0x4e4>
     9ac:	47 c0       	rjmp	.+142    	; 0xa3c <doTickWork()+0x572>
_ZN11adcReader_cI9regfile_cImLj14EELh1ELh16EE11readOwnTempEv.isra.4():
C:\Users\ericw\AppData\Local\Temp\arduino_build_985276\sketch/adcReader.h:70
            next += 1;
            return next;
        };

        uint16_t readOwnTemp() {
            ADMUX   = B100010; // select temp sensor
     9ae:	82 e2       	ldi	r24, 0x22	; 34
     9b0:	87 b9       	out	0x07, r24	; 7
C:\Users\ericw\AppData\Local\Temp\arduino_build_985276\sketch/adcReader.h:73
            // ADMUX  &= ~_BV(ADLAR);
            // select 1.1 volt reference
            ADMUX  |=  _BV(REFS1); 
     9b2:	3f 9a       	sbi	0x07, 7	; 7
C:\Users\ericw\AppData\Local\Temp\arduino_build_985276\sketch/adcReader.h:74
            ADMUX  &= ~_BV(REFS0);
     9b4:	3e 98       	cbi	0x07, 6	; 7
C:\Users\ericw\AppData\Local\Temp\arduino_build_985276\sketch/adcReader.h:75
            delay(2);
     9b6:	62 e0       	ldi	r22, 0x02	; 2
     9b8:	70 e0       	ldi	r23, 0x00	; 0
     9ba:	80 e0       	ldi	r24, 0x00	; 0
     9bc:	90 e0       	ldi	r25, 0x00	; 0
     9be:	a2 dc       	rcall	.-1724   	; 0x304 <delay>
C:\Users\ericw\AppData\Local\Temp\arduino_build_985276\sketch/adcReader.h:77
            // no interrupts and no auto-trigger
            ADCSRA &= ~(_BV(ADATE) | _BV(ADIE));
     9c0:	86 b1       	in	r24, 0x06	; 6
     9c2:	87 7d       	andi	r24, 0xD7	; 215
     9c4:	86 b9       	out	0x06, r24	; 6
C:\Users\ericw\AppData\Local\Temp\arduino_build_985276\sketch/adcReader.h:79
            // turn her on and start a conversion
            ADCSRA |= _BV(ADEN);
     9c6:	37 9a       	sbi	0x06, 7	; 6
C:\Users\ericw\AppData\Local\Temp\arduino_build_985276\sketch/adcReader.h:80
            ADCSRA |= _BV(ADSC);
     9c8:	36 9a       	sbi	0x06, 6	; 6
C:\Users\ericw\AppData\Local\Temp\arduino_build_985276\sketch/adcReader.h:81
            delay(2);
     9ca:	62 e0       	ldi	r22, 0x02	; 2
     9cc:	70 e0       	ldi	r23, 0x00	; 0
     9ce:	80 e0       	ldi	r24, 0x00	; 0
     9d0:	90 e0       	ldi	r25, 0x00	; 0
     9d2:	98 dc       	rcall	.-1744   	; 0x304 <delay>
C:\Users\ericw\AppData\Local\Temp\arduino_build_985276\sketch/adcReader.h:82
            while (bit_is_set(ADCSRA,ADSC));
     9d4:	36 99       	sbic	0x06, 6	; 6
     9d6:	fe cf       	rjmp	.-4      	; 0x9d4 <doTickWork()+0x50a>
C:\Users\ericw\AppData\Local\Temp\arduino_build_985276\sketch/adcReader.h:84
            // supposed to read ADCL first, then ADCH
            uint16_t ov = ADCL;
     9d8:	84 b1       	in	r24, 0x04	; 4
C:\Users\ericw\AppData\Local\Temp\arduino_build_985276\sketch/adcReader.h:85
            ov |= (ADCH << 8);
     9da:	25 b1       	in	r18, 0x05	; 5
     9dc:	32 2f       	mov	r19, r18
     9de:	28 2f       	mov	r18, r24
doRead():
C:\Users\ericw\AppData\Local\Temp\arduino_build_985276\sketch/adcReader.h:31
            switch (next % 6) {
                 
                case 0 :
                    r = REG_TEMP_V33;
                    h = register_top;
                    v = avg_temp.update(readOwnTemp());
     9e0:	89 01       	movw	r16, r18
     9e2:	30 e0       	ldi	r19, 0x00	; 0
     9e4:	20 e0       	ldi	r18, 0x00	; 0
_Z10doTickWorkv():
C:\Users\ericw\AppData\Local\Temp\arduino_build_985276\sketch/adcReader.h:30
            register_half_t h = register_bottom;
            switch (next % 6) {
                 
                case 0 :
                    r = REG_TEMP_V33;
                    h = register_top;
     9e6:	81 e0       	ldi	r24, 0x01	; 1
     9e8:	90 e0       	ldi	r25, 0x00	; 0
C:\Users\ericw\AppData\Local\Temp\arduino_build_985276\sketch/adcReader.h:34
                    v = avg_temp.update(readOwnTemp());
                    break;
                case 1 :
                    r = REG_TEMP_V33;
     9ea:	65 e0       	ldi	r22, 0x05	; 5
     9ec:	70 e0       	ldi	r23, 0x00	; 0
doRead():
C:\Users\ericw\AppData\Local\Temp\arduino_build_985276\sketch/adcReader.h:64
                    analogReference(INTERNAL1V1);
                    v = avg_vcc_sw.update(analogRead(A2));
                    break;
            } 
            
            if (r != _REG_INVALID) rf.sethl(r,v,h);
     9ee:	e0 91 d3 00 	lds	r30, 0x00D3	; 0x8000d3 <adcreader+0x1>
     9f2:	f0 91 d4 00 	lds	r31, 0x00D4	; 0x8000d4 <adcreader+0x2>
sethl():
C:\Users\ericw\AppData\Local\Temp\arduino_build_985276\sketch/regfile.h:60
        REGW sethl(uint8_t addr, REGW i, register_half_t half) {
            size_t sz = sizeof(REGW);
            REGW mask = ~0; // all ones
            mask >>= (sz * 4);
            i &= mask;
            if (half == register_bottom) {
     9f6:	89 2b       	or	r24, r25
     9f8:	09 f0       	breq	.+2      	; 0x9fc <doTickWork()+0x532>
     9fa:	59 c0       	rjmp	.+178    	; 0xaae <doTickWork()+0x5e4>
_Z10doTickWorkv():
C:\Users\ericw\AppData\Local\Temp\arduino_build_985276\sketch/regfile.h:61
                mask <<= (sz * 4);
     9fc:	c1 2c       	mov	r12, r1
     9fe:	d1 2c       	mov	r13, r1
     a00:	ee 24       	eor	r14, r14
     a02:	ea 94       	dec	r14
     a04:	fe 2c       	mov	r15, r14
     a06:	5b c0       	rjmp	.+182    	; 0xabe <doTickWork()+0x5f4>
doRead():
C:\Users\ericw\AppData\Local\Temp\arduino_build_985276\sketch/adcReader.h:26
;
        uint8_t doRead() {
            reg_names_t r = _REG_INVALID;
            reg_t v       = 0xdeadbeef;
            register_half_t h = register_bottom;
            switch (next % 6) {
     a08:	94 30       	cpi	r25, 0x04	; 4
     a0a:	79 f1       	breq	.+94     	; 0xa6a <doTickWork()+0x5a0>
     a0c:	95 30       	cpi	r25, 0x05	; 5
     a0e:	79 f6       	brne	.-98     	; 0x9ae <doTickWork()+0x4e4>
analogReference():
C:\Users\ericw\AppData\Local\Arduino15\packages\ATTinyCore\hardware\avr\1.4.1\cores\tiny/wiring_analog.c:45
{
  // can't actually set the register here because the default setting
  // will connect AVCC and the AREF pin, which would cause a short if
  // there's something connected to AREF.
  // fix? Validate the mode?
  analog_reference = mode;
     a10:	82 e0       	ldi	r24, 0x02	; 2
     a12:	80 93 ee 00 	sts	0x00EE, r24	; 0x8000ee <analog_reference>
doRead():
C:\Users\ericw\AppData\Local\Temp\arduino_build_985276\sketch/adcReader.h:60
                    break;
                case 5 :
                    r = REG_V5_V5SWTCH;
                    h = register_bottom;
                    analogReference(INTERNAL1V1);
                    v = avg_vcc_sw.update(analogRead(A2));
     a16:	82 e8       	ldi	r24, 0x82	; 130
     a18:	40 dc       	rcall	.-1920   	; 0x29a <analogRead>
     a1a:	8c 01       	movw	r16, r24
     a1c:	30 e0       	ldi	r19, 0x00	; 0
     a1e:	20 e0       	ldi	r18, 0x00	; 0
_Z10doTickWorkv():
C:\Users\ericw\AppData\Local\Temp\arduino_build_985276\sketch/adcReader.h:58
                    h = register_top;
                    v = avg_vcc.update(readOwnVCC());
                    break;
                case 5 :
                    r = REG_V5_V5SWTCH;
                    h = register_bottom;
     a20:	90 e0       	ldi	r25, 0x00	; 0
     a22:	80 e0       	ldi	r24, 0x00	; 0
     a24:	41 c0       	rjmp	.+130    	; 0xaa8 <doTickWork()+0x5de>
analogReference():
C:\Users\ericw\AppData\Local\Arduino15\packages\ATTinyCore\hardware\avr\1.4.1\cores\tiny/wiring_analog.c:45
     a26:	82 e0       	ldi	r24, 0x02	; 2
     a28:	80 93 ee 00 	sts	0x00EE, r24	; 0x8000ee <analog_reference>
doRead():
C:\Users\ericw\AppData\Local\Temp\arduino_build_985276\sketch/adcReader.h:37
                    break;
                case 1 :
                    r = REG_TEMP_V33;
                    h = register_bottom;
                    analogReference(INTERNAL1V1);
                    v = avg_vcc33.update(analogRead(A3));
     a2c:	83 e8       	ldi	r24, 0x83	; 131
     a2e:	35 dc       	rcall	.-1942   	; 0x29a <analogRead>
     a30:	8c 01       	movw	r16, r24
     a32:	30 e0       	ldi	r19, 0x00	; 0
     a34:	20 e0       	ldi	r18, 0x00	; 0
_Z10doTickWorkv():
C:\Users\ericw\AppData\Local\Temp\arduino_build_985276\sketch/adcReader.h:35
                    h = register_top;
                    v = avg_temp.update(readOwnTemp());
                    break;
                case 1 :
                    r = REG_TEMP_V33;
                    h = register_bottom;
     a36:	90 e0       	ldi	r25, 0x00	; 0
     a38:	80 e0       	ldi	r24, 0x00	; 0
     a3a:	d7 cf       	rjmp	.-82     	; 0x9ea <doTickWork()+0x520>
analogReference():
C:\Users\ericw\AppData\Local\Arduino15\packages\ATTinyCore\hardware\avr\1.4.1\cores\tiny/wiring_analog.c:45
     a3c:	90 93 ee 00 	sts	0x00EE, r25	; 0x8000ee <analog_reference>
doRead():
C:\Users\ericw\AppData\Local\Temp\arduino_build_985276\sketch/adcReader.h:43
                    break;
                case 2 :
                    r = REG_VSENSA_VSENSB;
                    h = register_top;
                    analogReference(INTERNAL1V1);
                    v = avg_vbat.update(analogRead(A0));
     a40:	80 e8       	ldi	r24, 0x80	; 128
     a42:	2b dc       	rcall	.-1962   	; 0x29a <analogRead>
     a44:	8c 01       	movw	r16, r24
     a46:	30 e0       	ldi	r19, 0x00	; 0
     a48:	20 e0       	ldi	r18, 0x00	; 0
_Z10doTickWorkv():
C:\Users\ericw\AppData\Local\Temp\arduino_build_985276\sketch/adcReader.h:41
                    analogReference(INTERNAL1V1);
                    v = avg_vcc33.update(analogRead(A3));
                    break;
                case 2 :
                    r = REG_VSENSA_VSENSB;
                    h = register_top;
     a4a:	81 e0       	ldi	r24, 0x01	; 1
     a4c:	90 e0       	ldi	r25, 0x00	; 0
C:\Users\ericw\AppData\Local\Temp\arduino_build_985276\sketch/adcReader.h:46
                    analogReference(INTERNAL1V1);
                    v = avg_vbat.update(analogRead(A0));
                    break;
                case 3 :
                    r = REG_VSENSA_VSENSB;
     a4e:	66 e0       	ldi	r22, 0x06	; 6
     a50:	70 e0       	ldi	r23, 0x00	; 0
     a52:	cd cf       	rjmp	.-102    	; 0x9ee <doTickWork()+0x524>
analogReference():
C:\Users\ericw\AppData\Local\Arduino15\packages\ATTinyCore\hardware\avr\1.4.1\cores\tiny/wiring_analog.c:45
     a54:	82 e0       	ldi	r24, 0x02	; 2
     a56:	80 93 ee 00 	sts	0x00EE, r24	; 0x8000ee <analog_reference>
doRead():
C:\Users\ericw\AppData\Local\Temp\arduino_build_985276\sketch/adcReader.h:49
                    h = register_bottom;
                    analogReference(INTERNAL1V1);
                    v = avg_vbat.update(analogRead(A1));
     a5a:	81 e8       	ldi	r24, 0x81	; 129
     a5c:	1e dc       	rcall	.-1988   	; 0x29a <analogRead>
     a5e:	8c 01       	movw	r16, r24
     a60:	30 e0       	ldi	r19, 0x00	; 0
     a62:	20 e0       	ldi	r18, 0x00	; 0
_Z10doTickWorkv():
C:\Users\ericw\AppData\Local\Temp\arduino_build_985276\sketch/adcReader.h:47
                    analogReference(INTERNAL1V1);
                    v = avg_vbat.update(analogRead(A0));
                    break;
                case 3 :
                    r = REG_VSENSA_VSENSB;
                    h = register_bottom;
     a64:	90 e0       	ldi	r25, 0x00	; 0
     a66:	80 e0       	ldi	r24, 0x00	; 0
     a68:	f2 cf       	rjmp	.-28     	; 0xa4e <doTickWork()+0x584>
_ZN11adcReader_cI9regfile_cImLj14EELh1ELh16EE10readOwnVCCEv.isra.6():
C:\Users\ericw\AppData\Local\Temp\arduino_build_985276\sketch/adcReader.h:91
            return ov;
        }

        uint16_t readOwnVCC() {
            uint32_t result;
            ADMUX = _BV(MUX5) | _BV(MUX0);
     a6a:	81 e2       	ldi	r24, 0x21	; 33
     a6c:	87 b9       	out	0x07, r24	; 7
C:\Users\ericw\AppData\Local\Temp\arduino_build_985276\sketch/adcReader.h:92
            delay(2);
     a6e:	62 e0       	ldi	r22, 0x02	; 2
     a70:	70 e0       	ldi	r23, 0x00	; 0
     a72:	80 e0       	ldi	r24, 0x00	; 0
     a74:	90 e0       	ldi	r25, 0x00	; 0
     a76:	46 dc       	rcall	.-1908   	; 0x304 <delay>
C:\Users\ericw\AppData\Local\Temp\arduino_build_985276\sketch/adcReader.h:93
            ADCSRA |= _BV(ADSC);
     a78:	36 9a       	sbi	0x06, 6	; 6
C:\Users\ericw\AppData\Local\Temp\arduino_build_985276\sketch/adcReader.h:94
            while (bit_is_set(ADCSRA,ADSC));
     a7a:	36 99       	sbic	0x06, 6	; 6
     a7c:	fe cf       	rjmp	.-4      	; 0xa7a <doTickWork()+0x5b0>
C:\Users\ericw\AppData\Local\Temp\arduino_build_985276\sketch/adcReader.h:95
            result = ADCL;
     a7e:	84 b1       	in	r24, 0x04	; 4
C:\Users\ericw\AppData\Local\Temp\arduino_build_985276\sketch/adcReader.h:96
            result |= ADCH << 8;
     a80:	25 b1       	in	r18, 0x05	; 5
     a82:	30 e0       	ldi	r19, 0x00	; 0
     a84:	32 2f       	mov	r19, r18
     a86:	22 27       	eor	r18, r18
     a88:	03 2e       	mov	r0, r19
     a8a:	00 0c       	add	r0, r0
     a8c:	44 0b       	sbc	r20, r20
     a8e:	55 0b       	sbc	r21, r21
     a90:	28 2b       	or	r18, r24
C:\Users\ericw\AppData\Local\Temp\arduino_build_985276\sketch/adcReader.h:98
            // reading directly in mV
            result = 1126400L / result;
     a92:	60 e0       	ldi	r22, 0x00	; 0
     a94:	70 e3       	ldi	r23, 0x30	; 48
     a96:	81 e1       	ldi	r24, 0x11	; 17
     a98:	90 e0       	ldi	r25, 0x00	; 0
     a9a:	c6 d2       	rcall	.+1420   	; 0x1028 <__udivmodsi4>
     a9c:	89 01       	movw	r16, r18
     a9e:	9a 01       	movw	r18, r20
     aa0:	22 27       	eor	r18, r18
     aa2:	33 27       	eor	r19, r19
_Z10doTickWorkv():
C:\Users\ericw\AppData\Local\Temp\arduino_build_985276\sketch/adcReader.h:53
                    analogReference(INTERNAL1V1);
                    v = avg_vbat.update(analogRead(A1));
                    break;
                case 4 :
                    r = REG_V5_V5SWTCH;
                    h = register_top;
     aa4:	81 e0       	ldi	r24, 0x01	; 1
     aa6:	90 e0       	ldi	r25, 0x00	; 0
C:\Users\ericw\AppData\Local\Temp\arduino_build_985276\sketch/adcReader.h:57
                    v = avg_vcc.update(readOwnVCC());
                    break;
                case 5 :
                    r = REG_V5_V5SWTCH;
     aa8:	67 e0       	ldi	r22, 0x07	; 7
     aaa:	70 e0       	ldi	r23, 0x00	; 0
     aac:	a0 cf       	rjmp	.-192    	; 0x9ee <doTickWork()+0x524>
sethl():
C:\Users\ericw\AppData\Local\Temp\arduino_build_985276\sketch/regfile.h:63
            } else {
                i <<= (sz * 4);
     aae:	98 01       	movw	r18, r16
     ab0:	11 27       	eor	r17, r17
     ab2:	00 27       	eor	r16, r16
_Z10doTickWorkv():
C:\Users\ericw\AppData\Local\Temp\arduino_build_985276\sketch/regfile.h:58
        }

        REGW sethl(uint8_t addr, REGW i, register_half_t half) {
            size_t sz = sizeof(REGW);
            REGW mask = ~0; // all ones
            mask >>= (sz * 4);
     ab4:	cc 24       	eor	r12, r12
     ab6:	ca 94       	dec	r12
     ab8:	dc 2c       	mov	r13, r12
     aba:	e1 2c       	mov	r14, r1
     abc:	f1 2c       	mov	r15, r1
     abe:	66 0f       	add	r22, r22
     ac0:	77 1f       	adc	r23, r23
     ac2:	66 0f       	add	r22, r22
     ac4:	77 1f       	adc	r23, r23
     ac6:	e6 0f       	add	r30, r22
     ac8:	f7 1f       	adc	r31, r23
sethl():
C:\Users\ericw\AppData\Local\Temp\arduino_build_985276\sketch/regfile.h:65
            if (half == register_bottom) {
                mask <<= (sz * 4);
            } else {
                i <<= (sz * 4);
            }
            REGW o = registers[addr % REG_COUNT];
     aca:	80 81       	ld	r24, Z
     acc:	91 81       	ldd	r25, Z+1	; 0x01
     ace:	a2 81       	ldd	r26, Z+2	; 0x02
     ad0:	b3 81       	ldd	r27, Z+3	; 0x03
C:\Users\ericw\AppData\Local\Temp\arduino_build_985276\sketch/regfile.h:67

            o &= mask;
     ad2:	8c 21       	and	r24, r12
     ad4:	9d 21       	and	r25, r13
     ad6:	ae 21       	and	r26, r14
     ad8:	bf 21       	and	r27, r15
C:\Users\ericw\AppData\Local\Temp\arduino_build_985276\sketch/regfile.h:68
            o |= i;
     ada:	80 2b       	or	r24, r16
     adc:	91 2b       	or	r25, r17
     ade:	a2 2b       	or	r26, r18
     ae0:	b3 2b       	or	r27, r19
C:\Users\ericw\AppData\Local\Temp\arduino_build_985276\sketch/regfile.h:70

            registers[addr % REG_COUNT] = o;
     ae2:	80 83       	st	Z, r24
     ae4:	91 83       	std	Z+1, r25	; 0x01
     ae6:	a2 83       	std	Z+2, r26	; 0x02
     ae8:	b3 83       	std	Z+3, r27	; 0x03
doRead():
C:\Users\ericw\AppData\Local\Temp\arduino_build_985276\sketch/adcReader.h:65
                    v = avg_vcc_sw.update(analogRead(A2));
                    break;
            } 
            
            if (r != _REG_INVALID) rf.sethl(r,v,h);
            next += 1;
     aea:	80 91 d2 00 	lds	r24, 0x00D2	; 0x8000d2 <adcreader>
     aee:	8f 5f       	subi	r24, 0xFF	; 255
     af0:	80 93 d2 00 	sts	0x00D2, r24	; 0x8000d2 <adcreader>
     af4:	32 cf       	rjmp	.-412    	; 0x95a <doTickWork()+0x490>

00000af6 <__vector_11>:
__vector_11():
C:\Users\ericw\AppData\Local\Arduino15\packages\ATTinyCore\hardware\avr\1.4.1\cores\tiny/wiring.c:139
      #error "cannot find Millis() timer overflow vector"
    #endif
  #else
    #error "Millis() timer not defined!"
  #endif
  {
     af6:	1f 92       	push	r1
     af8:	0f 92       	push	r0
     afa:	0f b6       	in	r0, 0x3f	; 63
     afc:	0f 92       	push	r0
     afe:	11 24       	eor	r1, r1
     b00:	2f 93       	push	r18
     b02:	3f 93       	push	r19
     b04:	8f 93       	push	r24
     b06:	9f 93       	push	r25
     b08:	af 93       	push	r26
     b0a:	bf 93       	push	r27
C:\Users\ericw\AppData\Local\Arduino15\packages\ATTinyCore\hardware\avr\1.4.1\cores\tiny/wiring.c:142
    // copy these to local variables so they can be stored in registers
    // (volatile variables must be read from memory on every access)
    unsigned long m = millis_timer_millis;
     b0c:	80 91 01 01 	lds	r24, 0x0101	; 0x800101 <millis_timer_millis>
     b10:	90 91 02 01 	lds	r25, 0x0102	; 0x800102 <millis_timer_millis+0x1>
     b14:	a0 91 03 01 	lds	r26, 0x0103	; 0x800103 <millis_timer_millis+0x2>
     b18:	b0 91 04 01 	lds	r27, 0x0104	; 0x800104 <millis_timer_millis+0x3>
C:\Users\ericw\AppData\Local\Arduino15\packages\ATTinyCore\hardware\avr\1.4.1\cores\tiny/wiring.c:143
    unsigned char f = millis_timer_fract;
     b1c:	30 91 e9 00 	lds	r19, 0x00E9	; 0x8000e9 <millis_timer_fract>
C:\Users\ericw\AppData\Local\Arduino15\packages\ATTinyCore\hardware\avr\1.4.1\cores\tiny/wiring.c:145

    f += FRACT_INC;
     b20:	26 e0       	ldi	r18, 0x06	; 6
     b22:	23 0f       	add	r18, r19
C:\Users\ericw\AppData\Local\Arduino15\packages\ATTinyCore\hardware\avr\1.4.1\cores\tiny/wiring.c:147

    if (f >= FRACT_MAX)
     b24:	2d 37       	cpi	r18, 0x7D	; 125
     b26:	68 f1       	brcs	.+90     	; 0xb82 <__vector_11+0x8c>
C:\Users\ericw\AppData\Local\Arduino15\packages\ATTinyCore\hardware\avr\1.4.1\cores\tiny/wiring.c:149
    {
      f -= FRACT_MAX;
     b28:	29 e8       	ldi	r18, 0x89	; 137
     b2a:	23 0f       	add	r18, r19
C:\Users\ericw\AppData\Local\Arduino15\packages\ATTinyCore\hardware\avr\1.4.1\cores\tiny/wiring.c:151
    m += 1;
      m += MILLIS_INC;
     b2c:	03 96       	adiw	r24, 0x03	; 3
     b2e:	a1 1d       	adc	r26, r1
     b30:	b1 1d       	adc	r27, r1
C:\Users\ericw\AppData\Local\Arduino15\packages\ATTinyCore\hardware\avr\1.4.1\cores\tiny/wiring.c:158
    else
    {
      m += MILLIS_INC;
    }

    millis_timer_fract = f;
     b32:	20 93 e9 00 	sts	0x00E9, r18	; 0x8000e9 <millis_timer_fract>
C:\Users\ericw\AppData\Local\Arduino15\packages\ATTinyCore\hardware\avr\1.4.1\cores\tiny/wiring.c:159
    millis_timer_millis = m;
     b36:	80 93 01 01 	sts	0x0101, r24	; 0x800101 <millis_timer_millis>
     b3a:	90 93 02 01 	sts	0x0102, r25	; 0x800102 <millis_timer_millis+0x1>
     b3e:	a0 93 03 01 	sts	0x0103, r26	; 0x800103 <millis_timer_millis+0x2>
     b42:	b0 93 04 01 	sts	0x0104, r27	; 0x800104 <millis_timer_millis+0x3>
C:\Users\ericw\AppData\Local\Arduino15\packages\ATTinyCore\hardware\avr\1.4.1\cores\tiny/wiring.c:160
    millis_timer_overflow_count++;
     b46:	80 91 ea 00 	lds	r24, 0x00EA	; 0x8000ea <millis_timer_overflow_count>
     b4a:	90 91 eb 00 	lds	r25, 0x00EB	; 0x8000eb <millis_timer_overflow_count+0x1>
     b4e:	a0 91 ec 00 	lds	r26, 0x00EC	; 0x8000ec <millis_timer_overflow_count+0x2>
     b52:	b0 91 ed 00 	lds	r27, 0x00ED	; 0x8000ed <millis_timer_overflow_count+0x3>
     b56:	01 96       	adiw	r24, 0x01	; 1
     b58:	a1 1d       	adc	r26, r1
     b5a:	b1 1d       	adc	r27, r1
     b5c:	80 93 ea 00 	sts	0x00EA, r24	; 0x8000ea <millis_timer_overflow_count>
     b60:	90 93 eb 00 	sts	0x00EB, r25	; 0x8000eb <millis_timer_overflow_count+0x1>
     b64:	a0 93 ec 00 	sts	0x00EC, r26	; 0x8000ec <millis_timer_overflow_count+0x2>
     b68:	b0 93 ed 00 	sts	0x00ED, r27	; 0x8000ed <millis_timer_overflow_count+0x3>
C:\Users\ericw\AppData\Local\Arduino15\packages\ATTinyCore\hardware\avr\1.4.1\cores\tiny/wiring.c:162

  }
     b6c:	bf 91       	pop	r27
     b6e:	af 91       	pop	r26
     b70:	9f 91       	pop	r25
     b72:	8f 91       	pop	r24
     b74:	3f 91       	pop	r19
     b76:	2f 91       	pop	r18
     b78:	0f 90       	pop	r0
     b7a:	0f be       	out	0x3f, r0	; 63
     b7c:	0f 90       	pop	r0
     b7e:	1f 90       	pop	r1
     b80:	18 95       	reti
C:\Users\ericw\AppData\Local\Arduino15\packages\ATTinyCore\hardware\avr\1.4.1\cores\tiny/wiring.c:155
    m += 1;
      m += MILLIS_INC;
    }
    else
    {
      m += MILLIS_INC;
     b82:	02 96       	adiw	r24, 0x02	; 2
     b84:	a1 1d       	adc	r26, r1
     b86:	b1 1d       	adc	r27, r1
     b88:	d4 cf       	rjmp	.-88     	; 0xb32 <__vector_11+0x3c>

00000b8a <__vector_16>:
__vector_16():
C:\Users\ericw\AppData\Local\Temp\arduino_build_985276\sketch/spislave.cpp:10

ISR(PCINT1_vect)  { 
    spislave_c::getInstance()->_ss_int();
}

ISR(USI_OVF_vect) { 
     b8a:	1f 92       	push	r1
     b8c:	0f 92       	push	r0
     b8e:	0f b6       	in	r0, 0x3f	; 63
     b90:	0f 92       	push	r0
     b92:	11 24       	eor	r1, r1
     b94:	1f 93       	push	r17
     b96:	2f 93       	push	r18
     b98:	3f 93       	push	r19
     b9a:	4f 93       	push	r20
     b9c:	5f 93       	push	r21
     b9e:	6f 93       	push	r22
     ba0:	7f 93       	push	r23
     ba2:	8f 93       	push	r24
     ba4:	9f 93       	push	r25
     ba6:	af 93       	push	r26
     ba8:	bf 93       	push	r27
     baa:	cf 93       	push	r28
     bac:	df 93       	push	r29
     bae:	ef 93       	push	r30
     bb0:	ff 93       	push	r31
C:\Users\ericw\AppData\Local\Temp\arduino_build_985276\sketch/spislave.cpp:11
    spislave_c::getInstance()->_byte_int();
     bb2:	d2 db       	rcall	.-2140   	; 0x358 <spislave_c::getInstance()>
     bb4:	ec 01       	movw	r28, r24
_byte_int():
C:\Users\ericw\AppData\Local\Temp\arduino_build_985276\sketch/spislave.cpp:61

};

void 
spislave_c::_byte_int() {
    uint8_t newbyte = USIDR;
     bb6:	1f b1       	in	r17, 0x0f	; 15
C:\Users\ericw\AppData\Local\Temp\arduino_build_985276\sketch/spislave.cpp:63

    USISR = _BV(USIOIF);
     bb8:	80 e4       	ldi	r24, 0x40	; 64
     bba:	8e b9       	out	0x0e, r24	; 14
C:\Users\ericw\AppData\Local\Temp\arduino_build_985276\sketch/spislave.cpp:64
    USIDR = 0xff & (dv_out >> 24);
     bbc:	89 85       	ldd	r24, Y+9	; 0x09
     bbe:	9a 85       	ldd	r25, Y+10	; 0x0a
     bc0:	ab 85       	ldd	r26, Y+11	; 0x0b
     bc2:	bc 85       	ldd	r27, Y+12	; 0x0c
     bc4:	8b 2f       	mov	r24, r27
     bc6:	99 27       	eor	r25, r25
     bc8:	aa 27       	eor	r26, r26
     bca:	bb 27       	eor	r27, r27
     bcc:	8f b9       	out	0x0f, r24	; 15
C:\Users\ericw\AppData\Local\Temp\arduino_build_985276\sketch/spislave.cpp:67

    // do not do anythign at all if the SS is not low
    if (digitalRead(PIN_SS) || (bctr < 0)) return; 
     bce:	6c da       	rcall	.-2856   	; 0xa8 <digitalRead.constprop.0>
     bd0:	89 2b       	or	r24, r25
     bd2:	41 f5       	brne	.+80     	; 0xc24 <__vector_16+0x9a>
     bd4:	2c 81       	ldd	r18, Y+4	; 0x04
     bd6:	27 fd       	sbrc	r18, 7
     bd8:	25 c0       	rjmp	.+74     	; 0xc24 <__vector_16+0x9a>
C:\Users\ericw\AppData\Local\Temp\arduino_build_985276\sketch/spislave.cpp:69

    if (!bctr) {
     bda:	21 11       	cpse	r18, r1
     bdc:	37 c0       	rjmp	.+110    	; 0xc4c <__vector_16+0xc2>
C:\Users\ericw\AppData\Local\Temp\arduino_build_985276\sketch/spislave.cpp:70
        cmd_in = newbyte;
     bde:	1d 87       	std	Y+13, r17	; 0x0d
C:\Users\ericw\AppData\Local\Temp\arduino_build_985276\sketch/spislave.cpp:88
        psrl->print(cmd_out,HEX);
        psrl->print(" dv_out: ");
        psrl->println(dv_out,HEX);
    }

    dv_out <<= 8;
     be0:	89 85       	ldd	r24, Y+9	; 0x09
     be2:	9a 85       	ldd	r25, Y+10	; 0x0a
     be4:	ab 85       	ldd	r26, Y+11	; 0x0b
     be6:	bc 85       	ldd	r27, Y+12	; 0x0c
     be8:	ba 2f       	mov	r27, r26
     bea:	a9 2f       	mov	r26, r25
     bec:	98 2f       	mov	r25, r24
     bee:	88 27       	eor	r24, r24
     bf0:	89 87       	std	Y+9, r24	; 0x09
     bf2:	9a 87       	std	Y+10, r25	; 0x0a
     bf4:	ab 87       	std	Y+11, r26	; 0x0b
     bf6:	bc 87       	std	Y+12, r27	; 0x0c
C:\Users\ericw\AppData\Local\Temp\arduino_build_985276\sketch/spislave.cpp:90
  
    if (bctr == 4) {
     bf8:	24 30       	cpi	r18, 0x04	; 4
     bfa:	89 f4       	brne	.+34     	; 0xc1e <__vector_16+0x94>
C:\Users\ericw\AppData\Local\Temp\arduino_build_985276\sketch/spislave.cpp:91
        reg_t rv = ch(cmd_in, dv_in);
     bfc:	4d 81       	ldd	r20, Y+5	; 0x05
     bfe:	5e 81       	ldd	r21, Y+6	; 0x06
     c00:	6f 81       	ldd	r22, Y+7	; 0x07
     c02:	78 85       	ldd	r23, Y+8	; 0x08
     c04:	e8 81       	ld	r30, Y
     c06:	f9 81       	ldd	r31, Y+1	; 0x01
     c08:	8d 85       	ldd	r24, Y+13	; 0x0d
     c0a:	09 95       	icall
C:\Users\ericw\AppData\Local\Temp\arduino_build_985276\sketch/spislave.cpp:92
        dv_out = rv;
     c0c:	69 87       	std	Y+9, r22	; 0x09
     c0e:	7a 87       	std	Y+10, r23	; 0x0a
     c10:	8b 87       	std	Y+11, r24	; 0x0b
     c12:	9c 87       	std	Y+12, r25	; 0x0c
C:\Users\ericw\AppData\Local\Temp\arduino_build_985276\sketch/spislave.cpp:93
        cmd_out = cmd_in | 0x40;
     c14:	8d 85       	ldd	r24, Y+13	; 0x0d
     c16:	80 64       	ori	r24, 0x40	; 64
     c18:	8e 87       	std	Y+14, r24	; 0x0e
C:\Users\ericw\AppData\Local\Temp\arduino_build_985276\sketch/spislave.cpp:94
        bctr = -1;
     c1a:	8f ef       	ldi	r24, 0xFF	; 255
     c1c:	8c 83       	std	Y+4, r24	; 0x04
C:\Users\ericw\AppData\Local\Temp\arduino_build_985276\sketch/spislave.cpp:97
    }

    bctr += 1;
     c1e:	8c 81       	ldd	r24, Y+4	; 0x04
     c20:	8f 5f       	subi	r24, 0xFF	; 255
     c22:	8c 83       	std	Y+4, r24	; 0x04
__vector_16():
C:\Users\ericw\AppData\Local\Temp\arduino_build_985276\sketch/spislave.cpp:12
    spislave_c::getInstance()->_ss_int();
}

ISR(USI_OVF_vect) { 
    spislave_c::getInstance()->_byte_int();
}
     c24:	ff 91       	pop	r31
     c26:	ef 91       	pop	r30
     c28:	df 91       	pop	r29
     c2a:	cf 91       	pop	r28
     c2c:	bf 91       	pop	r27
     c2e:	af 91       	pop	r26
     c30:	9f 91       	pop	r25
     c32:	8f 91       	pop	r24
     c34:	7f 91       	pop	r23
     c36:	6f 91       	pop	r22
     c38:	5f 91       	pop	r21
     c3a:	4f 91       	pop	r20
     c3c:	3f 91       	pop	r19
     c3e:	2f 91       	pop	r18
     c40:	1f 91       	pop	r17
     c42:	0f 90       	pop	r0
     c44:	0f be       	out	0x3f, r0	; 63
     c46:	0f 90       	pop	r0
     c48:	1f 90       	pop	r1
     c4a:	18 95       	reti
_byte_int():
C:\Users\ericw\AppData\Local\Temp\arduino_build_985276\sketch/spislave.cpp:72
    if (digitalRead(PIN_SS) || (bctr < 0)) return; 

    if (!bctr) {
        cmd_in = newbyte;
    } else {
        dv_in = (dv_in << 8) | newbyte;
     c4c:	8d 81       	ldd	r24, Y+5	; 0x05
     c4e:	9e 81       	ldd	r25, Y+6	; 0x06
     c50:	af 81       	ldd	r26, Y+7	; 0x07
     c52:	b8 85       	ldd	r27, Y+8	; 0x08
     c54:	ba 2f       	mov	r27, r26
     c56:	a9 2f       	mov	r26, r25
     c58:	98 2f       	mov	r25, r24
     c5a:	88 27       	eor	r24, r24
     c5c:	81 2b       	or	r24, r17
     c5e:	8d 83       	std	Y+5, r24	; 0x05
     c60:	9e 83       	std	Y+6, r25	; 0x06
     c62:	af 83       	std	Y+7, r26	; 0x07
     c64:	b8 87       	std	Y+8, r27	; 0x08
     c66:	bc cf       	rjmp	.-136    	; 0xbe0 <__vector_16+0x56>

00000c68 <__vector_3>:
__vector_3():
C:\Users\ericw\AppData\Local\Temp\arduino_build_985276\sketch/spislave.cpp:6
#include <Arduino.h>
#include "spislave.h"
#include <avr/interrupt.h>
#include <avr/io.h>

ISR(PCINT1_vect)  { 
     c68:	1f 92       	push	r1
     c6a:	0f 92       	push	r0
     c6c:	0f b6       	in	r0, 0x3f	; 63
     c6e:	0f 92       	push	r0
     c70:	11 24       	eor	r1, r1
     c72:	2f 93       	push	r18
     c74:	3f 93       	push	r19
     c76:	4f 93       	push	r20
     c78:	5f 93       	push	r21
     c7a:	6f 93       	push	r22
     c7c:	7f 93       	push	r23
     c7e:	8f 93       	push	r24
     c80:	9f 93       	push	r25
     c82:	af 93       	push	r26
     c84:	bf 93       	push	r27
     c86:	cf 93       	push	r28
     c88:	df 93       	push	r29
     c8a:	ef 93       	push	r30
     c8c:	ff 93       	push	r31
C:\Users\ericw\AppData\Local\Temp\arduino_build_985276\sketch/spislave.cpp:7
    spislave_c::getInstance()->_ss_int();
     c8e:	64 db       	rcall	.-2360   	; 0x358 <spislave_c::getInstance()>
     c90:	ec 01       	movw	r28, r24
_ss_int():
C:\Users\ericw\AppData\Local\Temp\arduino_build_985276\sketch/spislave.cpp:37
    GIMSK  = _BV(PCIE1);
}

void
spislave_c::_ss_int() {
    if (!digitalRead(PIN_SS)) {
     c92:	0a da       	rcall	.-3052   	; 0xa8 <digitalRead.constprop.0>
     c94:	89 2b       	or	r24, r25
     c96:	e1 f4       	brne	.+56     	; 0xcd0 <__vector_3+0x68>
C:\Users\ericw\AppData\Local\Temp\arduino_build_985276\sketch/spislave.cpp:38
        pinMode(PIN_MISO, OUTPUT);
     c98:	61 e0       	ldi	r22, 0x01	; 1
     c9a:	85 e0       	ldi	r24, 0x05	; 5
     c9c:	cd da       	rcall	.-2662   	; 0x238 <pinMode>
C:\Users\ericw\AppData\Local\Temp\arduino_build_985276\sketch/spislave.cpp:44
        if (false && psrl) {
            psrl->println("T_start");
            // psrl->print("last USIDR ");
            // psrl->println(USIDR,HEX);
        }
        bctr = 0;
     c9e:	1c 82       	std	Y+4, r1	; 0x04
C:\Users\ericw\AppData\Local\Temp\arduino_build_985276\sketch/spislave.cpp:45
        USICR |= _BV(USIOIE);
     ca0:	6e 9a       	sbi	0x0d, 6	; 13
C:\Users\ericw\AppData\Local\Temp\arduino_build_985276\sketch/spislave.cpp:46
        USISR = _BV(USIOIF);
     ca2:	80 e4       	ldi	r24, 0x40	; 64
     ca4:	8e b9       	out	0x0e, r24	; 14
C:\Users\ericw\AppData\Local\Temp\arduino_build_985276\sketch/spislave.cpp:47
        USIDR = cmd_out;
     ca6:	8e 85       	ldd	r24, Y+14	; 0x0e
     ca8:	8f b9       	out	0x0f, r24	; 15
__vector_3():
C:\Users\ericw\AppData\Local\Temp\arduino_build_985276\sketch/spislave.cpp:8
#include <avr/interrupt.h>
#include <avr/io.h>

ISR(PCINT1_vect)  { 
    spislave_c::getInstance()->_ss_int();
}
     caa:	ff 91       	pop	r31
     cac:	ef 91       	pop	r30
     cae:	df 91       	pop	r29
     cb0:	cf 91       	pop	r28
     cb2:	bf 91       	pop	r27
     cb4:	af 91       	pop	r26
     cb6:	9f 91       	pop	r25
     cb8:	8f 91       	pop	r24
     cba:	7f 91       	pop	r23
     cbc:	6f 91       	pop	r22
     cbe:	5f 91       	pop	r21
     cc0:	4f 91       	pop	r20
     cc2:	3f 91       	pop	r19
     cc4:	2f 91       	pop	r18
     cc6:	0f 90       	pop	r0
     cc8:	0f be       	out	0x3f, r0	; 63
     cca:	0f 90       	pop	r0
     ccc:	1f 90       	pop	r1
     cce:	18 95       	reti
_ss_int():
C:\Users\ericw\AppData\Local\Temp\arduino_build_985276\sketch/spislave.cpp:49
        bctr = 0;
        USICR |= _BV(USIOIE);
        USISR = _BV(USIOIF);
        USIDR = cmd_out;
    } else {
        USICR &= ~_BV(USIOIE);
     cd0:	6e 98       	cbi	0x0d, 6	; 13
C:\Users\ericw\AppData\Local\Temp\arduino_build_985276\sketch/spislave.cpp:50
        USISR = 0;
     cd2:	1e b8       	out	0x0e, r1	; 14
C:\Users\ericw\AppData\Local\Temp\arduino_build_985276\sketch/spislave.cpp:51
        bctr = -1;
     cd4:	8f ef       	ldi	r24, 0xFF	; 255
     cd6:	8c 83       	std	Y+4, r24	; 0x04
C:\Users\ericw\AppData\Local\Temp\arduino_build_985276\sketch/spislave.cpp:52
        pinMode(PIN_MISO, INPUT);
     cd8:	60 e0       	ldi	r22, 0x00	; 0
     cda:	85 e0       	ldi	r24, 0x05	; 5
     cdc:	ad da       	rcall	.-2726   	; 0x238 <pinMode>
     cde:	e5 cf       	rjmp	.-54     	; 0xcaa <__vector_3+0x42>

00000ce0 <__vector_default>:
__vector_default():
C:\Users\ericw\Documents\GitHub\pidog2\attiny84_sketch\pidog2/pidog2.ino:309
        delay(MILLIS_PER_TICK / 10);
    }
}


ISR(BADISR_vect)  { }
     ce0:	1f 92       	push	r1
     ce2:	0f 92       	push	r0
     ce4:	0f b6       	in	r0, 0x3f	; 63
     ce6:	0f 92       	push	r0
     ce8:	11 24       	eor	r1, r1
     cea:	0f 90       	pop	r0
     cec:	0f be       	out	0x3f, r0	; 63
     cee:	0f 90       	pop	r0
     cf0:	1f 90       	pop	r1
     cf2:	18 95       	reti

00000cf4 <__vector_4>:
__vector_4():
C:\Users\ericw\Documents\GitHub\pidog2\attiny84_sketch\pidog2/pidog2.ino:26
const uint8_t PIN_LED_0    = 1;
const uint8_t PIN_LED_1    = 2;
const uint8_t PIN_PWR      = 3;

uint32_t vhits;
ISR(WDT_vect) { 
     cf4:	1f 92       	push	r1
     cf6:	0f 92       	push	r0
     cf8:	0f b6       	in	r0, 0x3f	; 63
     cfa:	0f 92       	push	r0
     cfc:	11 24       	eor	r1, r1
     cfe:	8f 93       	push	r24
     d00:	9f 93       	push	r25
     d02:	af 93       	push	r26
     d04:	bf 93       	push	r27
C:\Users\ericw\Documents\GitHub\pidog2\attiny84_sketch\pidog2/pidog2.ino:27
    vhits++;
     d06:	80 91 cd 00 	lds	r24, 0x00CD	; 0x8000cd <vhits>
     d0a:	90 91 ce 00 	lds	r25, 0x00CE	; 0x8000ce <vhits+0x1>
     d0e:	a0 91 cf 00 	lds	r26, 0x00CF	; 0x8000cf <vhits+0x2>
     d12:	b0 91 d0 00 	lds	r27, 0x00D0	; 0x8000d0 <vhits+0x3>
     d16:	01 96       	adiw	r24, 0x01	; 1
     d18:	a1 1d       	adc	r26, r1
     d1a:	b1 1d       	adc	r27, r1
     d1c:	80 93 cd 00 	sts	0x00CD, r24	; 0x8000cd <vhits>
     d20:	90 93 ce 00 	sts	0x00CE, r25	; 0x8000ce <vhits+0x1>
     d24:	a0 93 cf 00 	sts	0x00CF, r26	; 0x8000cf <vhits+0x2>
     d28:	b0 93 d0 00 	sts	0x00D0, r27	; 0x8000d0 <vhits+0x3>
C:\Users\ericw\Documents\GitHub\pidog2\attiny84_sketch\pidog2/pidog2.ino:28
}
     d2c:	bf 91       	pop	r27
     d2e:	af 91       	pop	r26
     d30:	9f 91       	pop	r25
     d32:	8f 91       	pop	r24
     d34:	0f 90       	pop	r0
     d36:	0f be       	out	0x3f, r0	; 63
     d38:	0f 90       	pop	r0
     d3a:	1f 90       	pop	r1
     d3c:	18 95       	reti

00000d3e <main>:
main():
C:\Users\ericw\AppData\Local\Arduino15\packages\ATTinyCore\hardware\avr\1.4.1\cores\tiny/wiring.c:904
  */

  // Use the Millis Timer for fast PWM (unless it doesn't have an output).
  #if (TIMER_TO_USE_FOR_MILLIS == 0)
    #if defined(WGM01) // if Timer0 has PWM
      TCCR0A = (1<<WGM01) | (1<<WGM00);
     d3e:	83 e0       	ldi	r24, 0x03	; 3
     d40:	80 bf       	out	0x30, r24	; 48
C:\Users\ericw\AppData\Local\Arduino15\packages\ATTinyCore\hardware\avr\1.4.1\cores\tiny/wiring.c:907
    #endif
    #if defined(TCCR0B) //The x61 has a wacky Timer0!
      TCCR0B = (MillisTimer_Prescale_Index << CS00);
     d42:	83 bf       	out	0x33, r24	; 51
C:\Users\ericw\AppData\Local\Arduino15\packages\ATTinyCore\hardware\avr\1.4.1\cores\tiny/wiring.c:928
    TCCR1A = 1<<WGM10;
    TCCR1B = (1<<WGM12) | (MillisTimer_Prescale_Index << CS10);
  #endif

  // this needs to be called before setup() or some functions won't work there
  sei();
     d44:	78 94       	sei
C:\Users\ericw\AppData\Local\Arduino15\packages\ATTinyCore\hardware\avr\1.4.1\cores\tiny/wiring.c:935
  #ifndef DISABLEMILLIS
    // Enable the overflow interrupt (this is the basic system tic-toc for millis)
    #if defined(TIMSK) && defined(TOIE0) && (TIMER_TO_USE_FOR_MILLIS == 0)
      sbi(TIMSK, TOIE0);
    #elif defined(TIMSK0) && defined(TOIE0) && (TIMER_TO_USE_FOR_MILLIS == 0)
      sbi(TIMSK0, TOIE0);
     d46:	99 b7       	in	r25, 0x39	; 57
     d48:	91 60       	ori	r25, 0x01	; 1
     d4a:	99 bf       	out	0x39, r25	; 57
initToneTimerInternal():
C:\Users\ericw\AppData\Local\Arduino15\packages\ATTinyCore\hardware\avr\1.4.1\cores\tiny/wiring.c:608
    #elif (TIMER_TO_USE_FOR_TONE == 1 ) && defined(__AVR_ATtinyX7__)
      TCCR1A = (1<<COM1A1)|(1<<COM1B1)|(1<<WGM10);
      TCCR1B = (ToneTimer_Prescale_Index << CS10)|(1<<WGM12);
    #elif (TIMER_TO_USE_FOR_TONE == 1) // x4, x8, x313,
      // Use the Tone Timer for phase correct PWM
      TCCR1A = (1<<WGM10) | (1<<WGM11);
     d4c:	8f bd       	out	0x2f, r24	; 47
C:\Users\ericw\AppData\Local\Arduino15\packages\ATTinyCore\hardware\avr\1.4.1\cores\tiny/wiring.c:609
      TCCR1B = (0<<WGM12) | (0<<WGM13) | (ToneTimer_Prescale_Index << CS10); //set the clock
     d4e:	8e bd       	out	0x2e, r24	; 46
main():
C:\Users\ericw\AppData\Local\Arduino15\packages\ATTinyCore\hardware\avr\1.4.1\cores\tiny/wiring.c:972

  // Initialize the ADC
  #if defined( INITIALIZE_ANALOG_TO_DIGITAL_CONVERTER ) && INITIALIZE_ANALOG_TO_DIGITAL_CONVERTER
    #if defined(ADCSRA)
      // set a2d prescale factor
      ADCSRA = (ADCSRA & ~((1<<ADPS2)|(1<<ADPS1)|(1<<ADPS0))) | (ADC_ARDUINO_PRESCALER << ADPS0) | (1<<ADEN);
     d50:	86 b1       	in	r24, 0x06	; 6
     d52:	88 77       	andi	r24, 0x78	; 120
     d54:	86 68       	ori	r24, 0x86	; 134
     d56:	86 b9       	out	0x06, r24	; 6
C:\Users\ericw\AppData\Local\Arduino15\packages\ATTinyCore\hardware\avr\1.4.1\cores\tiny/wiring.c:974
      // enable a2d conversions
      sbi(ADCSRA, ADEN);
     d58:	37 9a       	sbi	0x06, 7	; 6
wdt_enable():
c:\users\ericw\appdata\local\arduino15\packages\arduino\tools\avr-gcc\7.3.0-atmel3.6.1-arduino7\avr\include\avr/wdt.h:469
				: "I" (_SFR_IO_ADDR(_WD_CONTROL_REG)),
				"r" ((uint8_t)(_BV(_WD_CHANGE_BIT) | _BV(WDE))),
				"r" ((uint8_t) ((value & 0x08 ? _WD_PS3_MASK : 0x00) |
						_BV(WDE) | (value & 0x07)) )
				: "r0"
		);
     d5a:	88 e1       	ldi	r24, 0x18	; 24
     d5c:	9f e0       	ldi	r25, 0x0F	; 15
     d5e:	0f b6       	in	r0, 0x3f	; 63
     d60:	f8 94       	cli
     d62:	a8 95       	wdr
     d64:	81 bd       	out	0x21, r24	; 33
     d66:	0f be       	out	0x3f, r0	; 63
     d68:	91 bd       	out	0x21, r25	; 33
setup():
C:\Users\ericw\Documents\GitHub\pidog2\attiny84_sketch\pidog2/pidog2.ino:219
void setup() {

    //MCUSR = 0;
    // disable the watchdog
    wdt_enable(WDTO_2S);
    wdt_reset();
     d6a:	a8 95       	wdr
C:\Users\ericw\Documents\GitHub\pidog2\attiny84_sketch\pidog2/pidog2.ino:222
    // WDTCSR = _BV(WDCE) | _BV(WDIE);

    pinMode(PIN_PWR,      OUTPUT);
     d6c:	61 e0       	ldi	r22, 0x01	; 1
     d6e:	83 e0       	ldi	r24, 0x03	; 3
     d70:	63 da       	rcall	.-2874   	; 0x238 <pinMode>
C:\Users\ericw\Documents\GitHub\pidog2\attiny84_sketch\pidog2/pidog2.ino:223
    pinMode(PIN_LED_0,    OUTPUT);
     d72:	61 e0       	ldi	r22, 0x01	; 1
     d74:	81 e0       	ldi	r24, 0x01	; 1
     d76:	60 da       	rcall	.-2880   	; 0x238 <pinMode>
C:\Users\ericw\Documents\GitHub\pidog2\attiny84_sketch\pidog2/pidog2.ino:234
        for (uint8_t i=0;i<11;i++) {
            digitalWrite(PIN_LED_1,i&0x1);
            delay(i & 0x1 ? 10 : 20);
        }
    }
    noInterrupts();
     d78:	f8 94       	cli
     d7a:	e9 e0       	ldi	r30, 0x09	; 9
     d7c:	f1 e0       	ldi	r31, 0x01	; 1
     d7e:	81 e4       	ldi	r24, 0x41	; 65
     d80:	91 e0       	ldi	r25, 0x01	; 1
clear():
C:\Users\ericw\AppData\Local\Temp\arduino_build_985276\sketch/regfile.h:40
        }
        void set_debug(Stream *nser) {
          ser = nser;
        }
        void clear() {
          for (uint8_t i=0;i<REG_COUNT;i++) registers[i] = 0;
     d82:	11 92       	st	Z+, r1
     d84:	11 92       	st	Z+, r1
     d86:	11 92       	st	Z+, r1
     d88:	11 92       	st	Z+, r1
     d8a:	8e 17       	cp	r24, r30
     d8c:	9f 07       	cpc	r25, r31
     d8e:	c9 f7       	brne	.-14     	; 0xd82 <main+0x44>
begin():
C:\Users\ericw\AppData\Local\Temp\arduino_build_985276\sketch/SoftwareSerial_tx.cpp:124
  // 12 (gcc 4.8.2) or 13 (gcc 4.3.2) cycles from start bit to first bit,
  // 15 (gcc 4.8.2) or 16 (gcc 4.3.2) cycles between bits,
  // 12 (gcc 4.8.2) or 14 (gcc 4.3.2) cycles from last bit to stop bit
  // These are all close enough to just use 15 cycles, since the inter-bit
  // timings are the most critical (deviations stack 8 times)
  _tx_delay = subtract_cap(bit_delay, 15 / 4);
     d90:	0f ee       	ldi	r16, 0xEF	; 239
     d92:	10 e0       	ldi	r17, 0x00	; 0
     d94:	81 e3       	ldi	r24, 0x31	; 49
     d96:	90 e0       	ldi	r25, 0x00	; 0
     d98:	90 93 ff 00 	sts	0x00FF, r25	; 0x8000ff <srl+0x10>
     d9c:	80 93 fe 00 	sts	0x00FE, r24	; 0x8000fe <srl+0xf>
setup():
C:\Users\ericw\Documents\GitHub\pidog2\attiny84_sketch\pidog2/pidog2.ino:241
    // initialize the register file, start
    // in shutdon mode
    rf.clear();
#ifdef SERIAL_DEBUG
    srl.begin(38400);
    srl.println("hello!");
     da0:	6f e9       	ldi	r22, 0x9F	; 159
     da2:	70 e0       	ldi	r23, 0x00	; 0
     da4:	c8 01       	movw	r24, r16
     da6:	6c db       	rcall	.-2344   	; 0x480 <Print::println(char const*)>
_ZN9regfile_cImLj14EE9set_debugEP6Stream():
C:\Users\ericw\AppData\Local\Temp\arduino_build_985276\sketch/regfile.h:37
    public:
        regfile_c() {
          ser = 0;
        }
        void set_debug(Stream *nser) {
          ser = nser;
     da8:	10 93 42 01 	sts	0x0142, r17	; 0x800142 <rf+0x39>
     dac:	00 93 41 01 	sts	0x0141, r16	; 0x800141 <rf+0x38>
_ZN9regfile_cImLj14EE3setEhm():
C:\Users\ericw\AppData\Local\Temp\arduino_build_985276\sketch/regfile.h:99
        REGW setAnd(uint8_t addr, REGW val) {
            registers[addr % REG_COUNT] &= val;
            return get(addr);
        }
        REGW set(uint8_t addr, REGW val) {
            registers[addr % REG_COUNT] = val;
     db0:	81 e6       	ldi	r24, 0x61	; 97
     db2:	92 e7       	ldi	r25, 0x72	; 114
     db4:	a3 e6       	ldi	r26, 0x63	; 99
     db6:	b3 e7       	ldi	r27, 0x73	; 115
     db8:	80 93 39 01 	sts	0x0139, r24	; 0x800139 <rf+0x30>
     dbc:	90 93 3a 01 	sts	0x013A, r25	; 0x80013a <rf+0x31>
     dc0:	a0 93 3b 01 	sts	0x013B, r26	; 0x80013b <rf+0x32>
     dc4:	b0 93 3c 01 	sts	0x013C, r27	; 0x80013c <rf+0x33>
     dc8:	80 e0       	ldi	r24, 0x00	; 0
     dca:	98 e6       	ldi	r25, 0x68	; 104
     dcc:	a3 e6       	ldi	r26, 0x63	; 99
     dce:	b4 e7       	ldi	r27, 0x74	; 116
     dd0:	80 93 3d 01 	sts	0x013D, r24	; 0x80013d <rf+0x34>
     dd4:	90 93 3e 01 	sts	0x013E, r25	; 0x80013e <rf+0x35>
     dd8:	a0 93 3f 01 	sts	0x013F, r26	; 0x80013f <rf+0x36>
     ddc:	b0 93 40 01 	sts	0x0140, r27	; 0x800140 <rf+0x37>
     de0:	87 e0       	ldi	r24, 0x07	; 7
     de2:	92 e0       	ldi	r25, 0x02	; 2
     de4:	a4 e6       	ldi	r26, 0x64	; 100
     de6:	b0 e7       	ldi	r27, 0x70	; 112
     de8:	80 93 2d 01 	sts	0x012D, r24	; 0x80012d <rf+0x24>
     dec:	90 93 2e 01 	sts	0x012E, r25	; 0x80012e <rf+0x25>
     df0:	a0 93 2f 01 	sts	0x012F, r26	; 0x80012f <rf+0x26>
     df4:	b0 93 30 01 	sts	0x0130, r27	; 0x800130 <rf+0x27>
     df8:	84 e8       	ldi	r24, 0x84	; 132
     dfa:	93 e0       	ldi	r25, 0x03	; 3
     dfc:	a0 e0       	ldi	r26, 0x00	; 0
     dfe:	b0 e0       	ldi	r27, 0x00	; 0
     e00:	80 93 0d 01 	sts	0x010D, r24	; 0x80010d <rf+0x4>
     e04:	90 93 0e 01 	sts	0x010E, r25	; 0x80010e <rf+0x5>
     e08:	a0 93 0f 01 	sts	0x010F, r26	; 0x80010f <rf+0x6>
     e0c:	b0 93 10 01 	sts	0x0110, r27	; 0x800110 <rf+0x7>
     e10:	80 93 11 01 	sts	0x0111, r24	; 0x800111 <rf+0x8>
     e14:	90 93 12 01 	sts	0x0112, r25	; 0x800112 <rf+0x9>
     e18:	a0 93 13 01 	sts	0x0113, r26	; 0x800113 <rf+0xa>
     e1c:	b0 93 14 01 	sts	0x0114, r27	; 0x800114 <rf+0xb>
     e20:	80 93 19 01 	sts	0x0119, r24	; 0x800119 <rf+0x10>
     e24:	90 93 1a 01 	sts	0x011A, r25	; 0x80011a <rf+0x11>
     e28:	a0 93 1b 01 	sts	0x011B, r26	; 0x80011b <rf+0x12>
     e2c:	b0 93 1c 01 	sts	0x011C, r27	; 0x80011c <rf+0x13>
     e30:	80 93 15 01 	sts	0x0115, r24	; 0x800115 <rf+0xc>
     e34:	90 93 16 01 	sts	0x0116, r25	; 0x800116 <rf+0xd>
     e38:	a0 93 17 01 	sts	0x0117, r26	; 0x800117 <rf+0xe>
     e3c:	b0 93 18 01 	sts	0x0118, r27	; 0x800118 <rf+0xf>
     e40:	10 92 29 01 	sts	0x0129, r1	; 0x800129 <rf+0x20>
     e44:	10 92 2a 01 	sts	0x012A, r1	; 0x80012a <rf+0x21>
     e48:	10 92 2b 01 	sts	0x012B, r1	; 0x80012b <rf+0x22>
     e4c:	10 92 2c 01 	sts	0x012C, r1	; 0x80012c <rf+0x23>
     e50:	89 e2       	ldi	r24, 0x29	; 41
     e52:	90 e0       	ldi	r25, 0x00	; 0
     e54:	a0 e0       	ldi	r26, 0x00	; 0
     e56:	b0 e0       	ldi	r27, 0x00	; 0
     e58:	80 93 09 01 	sts	0x0109, r24	; 0x800109 <rf>
     e5c:	90 93 0a 01 	sts	0x010A, r25	; 0x80010a <rf+0x1>
     e60:	a0 93 0b 01 	sts	0x010B, r26	; 0x80010b <rf+0x2>
     e64:	b0 93 0c 01 	sts	0x010C, r27	; 0x80010c <rf+0x3>
     e68:	10 92 31 01 	sts	0x0131, r1	; 0x800131 <rf+0x28>
     e6c:	10 92 32 01 	sts	0x0132, r1	; 0x800132 <rf+0x29>
     e70:	10 92 33 01 	sts	0x0133, r1	; 0x800133 <rf+0x2a>
     e74:	10 92 34 01 	sts	0x0134, r1	; 0x800134 <rf+0x2b>
     e78:	10 92 35 01 	sts	0x0135, r1	; 0x800135 <rf+0x2c>
     e7c:	10 92 36 01 	sts	0x0136, r1	; 0x800136 <rf+0x2d>
     e80:	10 92 37 01 	sts	0x0137, r1	; 0x800137 <rf+0x2e>
     e84:	10 92 38 01 	sts	0x0138, r1	; 0x800138 <rf+0x2f>
setup():
C:\Users\ericw\Documents\GitHub\pidog2\attiny84_sketch\pidog2/pidog2.ino:260
        _BV(STAT_PWR_ON)
    );
    rf.set(REG_VSENSE_ON_THRESHOLD,VSENSE_ON_THRESHOLD);
    rf.set(REG_VSENSE_OFF_THRESHOLD,VSENSE_OFF_THRESHOLD);
    
    spislave_c *spi = spislave_c::getInstance();
     e88:	67 da       	rcall	.-2866   	; 0x358 <spislave_c::getInstance()>
     e8a:	ec 01       	movw	r28, r24
_ZN10spislave_c13setCmdHandlerEPFmhmE():
C:\Users\ericw\AppData\Local\Temp\arduino_build_985276\sketch/spislave.h:31
        void setCmdHandler(cmdhandler_t ich) { ch = ich; }
     e8c:	8d e6       	ldi	r24, 0x6D	; 109
     e8e:	90 e0       	ldi	r25, 0x00	; 0
     e90:	99 83       	std	Y+1, r25	; 0x01
     e92:	88 83       	st	Y, r24
init():
C:\Users\ericw\AppData\Local\Temp\arduino_build_985276\sketch/spislave.cpp:22
 * USISR == status register
 */

void
spislave_c::init() {
    pinMode(PIN_MISO, INPUT); // do not switch to output unless /CS
     e94:	60 e0       	ldi	r22, 0x00	; 0
     e96:	85 e0       	ldi	r24, 0x05	; 5
     e98:	cf d9       	rcall	.-3170   	; 0x238 <pinMode>
C:\Users\ericw\AppData\Local\Temp\arduino_build_985276\sketch/spislave.cpp:23
    pinMode(PIN_MOSI, INPUT);
     e9a:	60 e0       	ldi	r22, 0x00	; 0
     e9c:	84 e0       	ldi	r24, 0x04	; 4
     e9e:	cc d9       	rcall	.-3176   	; 0x238 <pinMode>
C:\Users\ericw\AppData\Local\Temp\arduino_build_985276\sketch/spislave.cpp:24
    pinMode(PIN_SCK,  INPUT);
     ea0:	60 e0       	ldi	r22, 0x00	; 0
     ea2:	86 e0       	ldi	r24, 0x06	; 6
     ea4:	c9 d9       	rcall	.-3182   	; 0x238 <pinMode>
C:\Users\ericw\AppData\Local\Temp\arduino_build_985276\sketch/spislave.cpp:25
    pinMode(PIN_SS ,  INPUT);
     ea6:	60 e0       	ldi	r22, 0x00	; 0
     ea8:	80 e0       	ldi	r24, 0x00	; 0
     eaa:	c6 d9       	rcall	.-3188   	; 0x238 <pinMode>
C:\Users\ericw\AppData\Local\Temp\arduino_build_985276\sketch/spislave.cpp:28

    // three wire mode
    USICR = _BV(USIWM0) | _BV(USICS1);
     eac:	88 e1       	ldi	r24, 0x18	; 24
     eae:	8d b9       	out	0x0d, r24	; 13
C:\Users\ericw\AppData\Local\Temp\arduino_build_985276\sketch/spislave.cpp:31

    // enable interrupts on SS only
    PCMSK1 = _BV(PCINT8);
     eb0:	81 e0       	ldi	r24, 0x01	; 1
     eb2:	80 bd       	out	0x20, r24	; 32
C:\Users\ericw\AppData\Local\Temp\arduino_build_985276\sketch/spislave.cpp:32
    GIMSK  = _BV(PCIE1);
     eb4:	80 e2       	ldi	r24, 0x20	; 32
     eb6:	8b bf       	out	0x3b, r24	; 59
_ZN10spislave_c8setDebugEP6Stream():
        void setDebug(Stream *s) { psrl = s; };
     eb8:	1b 83       	std	Y+3, r17	; 0x03
     eba:	0a 83       	std	Y+2, r16	; 0x02
setup():
C:\Users\ericw\Documents\GitHub\pidog2\attiny84_sketch\pidog2/pidog2.ino:267
    spi->init();
#ifdef SERIAL_DEBUG
    spi->setDebug(&srl);
#endif

    interrupts();
     ebc:	78 94       	sei
C:\Users\ericw\Documents\GitHub\pidog2\attiny84_sketch\pidog2/pidog2.ino:269
#ifdef SERIAL_DEBUG
    srl.println("setup complete");
     ebe:	66 ea       	ldi	r22, 0xA6	; 166
     ec0:	70 e0       	ldi	r23, 0x00	; 0
     ec2:	c8 01       	movw	r24, r16
     ec4:	dd da       	rcall	.-2630   	; 0x480 <Print::println(char const*)>
millis():
C:\Users\ericw\AppData\Local\Arduino15\packages\ATTinyCore\hardware\avr\1.4.1\cores\tiny/wiring.c:167
  }

  unsigned long millis()
  {
    unsigned long m;
    uint8_t oldSREG = SREG;
     ec6:	2f b7       	in	r18, 0x3f	; 63
C:\Users\ericw\AppData\Local\Arduino15\packages\ATTinyCore\hardware\avr\1.4.1\cores\tiny/wiring.c:171

    // disable interrupts while we read millis_timer_millis or we might get an
    // inconsistent value (e.g. in the middle of a write to millis_timer_millis)
    cli();
     ec8:	f8 94       	cli
C:\Users\ericw\AppData\Local\Arduino15\packages\ATTinyCore\hardware\avr\1.4.1\cores\tiny/wiring.c:172
    m = millis_timer_millis;
     eca:	80 91 01 01 	lds	r24, 0x0101	; 0x800101 <millis_timer_millis>
     ece:	90 91 02 01 	lds	r25, 0x0102	; 0x800102 <millis_timer_millis+0x1>
     ed2:	a0 91 03 01 	lds	r26, 0x0103	; 0x800103 <millis_timer_millis+0x2>
     ed6:	b0 91 04 01 	lds	r27, 0x0104	; 0x800104 <millis_timer_millis+0x3>
C:\Users\ericw\AppData\Local\Arduino15\packages\ATTinyCore\hardware\avr\1.4.1\cores\tiny/wiring.c:173
    SREG = oldSREG;
     eda:	2f bf       	out	0x3f, r18	; 63
setup():
C:\Users\ericw\Documents\GitHub\pidog2\attiny84_sketch\pidog2/pidog2.ino:271
#endif
    next_tick = millis();
     edc:	80 93 05 01 	sts	0x0105, r24	; 0x800105 <next_tick>
     ee0:	90 93 06 01 	sts	0x0106, r25	; 0x800106 <next_tick+0x1>
     ee4:	a0 93 07 01 	sts	0x0107, r26	; 0x800107 <next_tick+0x2>
     ee8:	b0 93 08 01 	sts	0x0108, r27	; 0x800108 <next_tick+0x3>
wdt_enable():
c:\users\ericw\appdata\local\arduino15\packages\arduino\tools\avr-gcc\7.3.0-atmel3.6.1-arduino7\avr\include\avr/wdt.h:469
     eec:	c8 e1       	ldi	r28, 0x18	; 24
     eee:	dc e0       	ldi	r29, 0x0C	; 12
loop():
C:\Users\ericw\Documents\GitHub\pidog2\attiny84_sketch\pidog2/pidog2.ino:293
    ADCSRA = adcsra_was;
}


void loop() {
    bool use_sleep = !(rf.get(REG_STATUS) & _BV(STAT_PWR_ON));
     ef0:	80 91 09 01 	lds	r24, 0x0109	; 0x800109 <rf>
C:\Users\ericw\Documents\GitHub\pidog2\attiny84_sketch\pidog2/pidog2.ino:294
    if (use_sleep) {
     ef4:	85 fd       	sbrc	r24, 5
     ef6:	1a c0       	rjmp	.+52     	; 0xf2c <main+0x1ee>
sleep250():
C:\Users\ericw\Documents\GitHub\pidog2\attiny84_sketch\pidog2/pidog2.ino:277
}



void sleep250() {
    uint8_t adcsra_was = ADCSRA;
     ef8:	96 b1       	in	r25, 0x06	; 6
C:\Users\ericw\Documents\GitHub\pidog2\attiny84_sketch\pidog2/pidog2.ino:278
    ADCSRA = 0;
     efa:	16 b8       	out	0x06, r1	; 6
wdt_enable():
c:\users\ericw\appdata\local\arduino15\packages\arduino\tools\avr-gcc\7.3.0-atmel3.6.1-arduino7\avr\include\avr/wdt.h:469
     efc:	0f b6       	in	r0, 0x3f	; 63
     efe:	f8 94       	cli
     f00:	a8 95       	wdr
     f02:	c1 bd       	out	0x21, r28	; 33
     f04:	0f be       	out	0x3f, r0	; 63
     f06:	d1 bd       	out	0x21, r29	; 33
sleep250():
C:\Users\ericw\Documents\GitHub\pidog2\attiny84_sketch\pidog2/pidog2.ino:281

    wdt_enable(WDTO_250MS);
    wdt_reset();
     f08:	a8 95       	wdr
C:\Users\ericw\Documents\GitHub\pidog2\attiny84_sketch\pidog2/pidog2.ino:282
    WDTCSR |= _BV(WDIE);
     f0a:	81 b5       	in	r24, 0x21	; 33
     f0c:	80 64       	ori	r24, 0x40	; 64
     f0e:	81 bd       	out	0x21, r24	; 33
C:\Users\ericw\Documents\GitHub\pidog2\attiny84_sketch\pidog2/pidog2.ino:283
    set_sleep_mode(SLEEP_MODE_PWR_DOWN);
     f10:	85 b7       	in	r24, 0x35	; 53
     f12:	87 7e       	andi	r24, 0xE7	; 231
     f14:	80 61       	ori	r24, 0x10	; 16
     f16:	85 bf       	out	0x35, r24	; 53
C:\Users\ericw\Documents\GitHub\pidog2\attiny84_sketch\pidog2/pidog2.ino:285

    sleep_mode();
     f18:	85 b7       	in	r24, 0x35	; 53
     f1a:	80 62       	ori	r24, 0x20	; 32
     f1c:	85 bf       	out	0x35, r24	; 53
     f1e:	88 95       	sleep
     f20:	85 b7       	in	r24, 0x35	; 53
     f22:	8f 7d       	andi	r24, 0xDF	; 223
     f24:	85 bf       	out	0x35, r24	; 53
C:\Users\ericw\Documents\GitHub\pidog2\attiny84_sketch\pidog2/pidog2.ino:288
    
    // and now we are awake again
    ADCSRA = adcsra_was;
     f26:	96 b9       	out	0x06, r25	; 6
loop():
C:\Users\ericw\Documents\GitHub\pidog2\attiny84_sketch\pidog2/pidog2.ino:296

void loop() {
    bool use_sleep = !(rf.get(REG_STATUS) & _BV(STAT_PWR_ON));
    if (use_sleep) {
        sleep250();
        doTickWork();      
     f28:	d0 da       	rcall	.-2656   	; 0x4ca <doTickWork()>
     f2a:	e2 cf       	rjmp	.-60     	; 0xef0 <main+0x1b2>
C:\Users\ericw\Documents\GitHub\pidog2\attiny84_sketch\pidog2/pidog2.ino:298
    } else {
        wdt_reset();
     f2c:	a8 95       	wdr
millis():
C:\Users\ericw\AppData\Local\Arduino15\packages\ATTinyCore\hardware\avr\1.4.1\cores\tiny/wiring.c:167
  }

  unsigned long millis()
  {
    unsigned long m;
    uint8_t oldSREG = SREG;
     f2e:	2f b7       	in	r18, 0x3f	; 63
C:\Users\ericw\AppData\Local\Arduino15\packages\ATTinyCore\hardware\avr\1.4.1\cores\tiny/wiring.c:171

    // disable interrupts while we read millis_timer_millis or we might get an
    // inconsistent value (e.g. in the middle of a write to millis_timer_millis)
    cli();
     f30:	f8 94       	cli
C:\Users\ericw\AppData\Local\Arduino15\packages\ATTinyCore\hardware\avr\1.4.1\cores\tiny/wiring.c:172
    m = millis_timer_millis;
     f32:	80 91 01 01 	lds	r24, 0x0101	; 0x800101 <millis_timer_millis>
     f36:	90 91 02 01 	lds	r25, 0x0102	; 0x800102 <millis_timer_millis+0x1>
     f3a:	a0 91 03 01 	lds	r26, 0x0103	; 0x800103 <millis_timer_millis+0x2>
     f3e:	b0 91 04 01 	lds	r27, 0x0104	; 0x800104 <millis_timer_millis+0x3>
C:\Users\ericw\AppData\Local\Arduino15\packages\ATTinyCore\hardware\avr\1.4.1\cores\tiny/wiring.c:173
    SREG = oldSREG;
     f42:	2f bf       	out	0x3f, r18	; 63
loop():
C:\Users\ericw\Documents\GitHub\pidog2\attiny84_sketch\pidog2/pidog2.ino:300
        bool new_tick = (millis() >= next_tick);
        if (new_tick) {
     f44:	40 91 05 01 	lds	r20, 0x0105	; 0x800105 <next_tick>
     f48:	50 91 06 01 	lds	r21, 0x0106	; 0x800106 <next_tick+0x1>
     f4c:	60 91 07 01 	lds	r22, 0x0107	; 0x800107 <next_tick+0x2>
     f50:	70 91 08 01 	lds	r23, 0x0108	; 0x800108 <next_tick+0x3>
     f54:	84 17       	cp	r24, r20
     f56:	95 07       	cpc	r25, r21
     f58:	a6 07       	cpc	r26, r22
     f5a:	b7 07       	cpc	r27, r23
     f5c:	a8 f0       	brcs	.+42     	; 0xf88 <main+0x24a>
C:\Users\ericw\Documents\GitHub\pidog2\attiny84_sketch\pidog2/pidog2.ino:301
            doTickWork();
     f5e:	b5 da       	rcall	.-2710   	; 0x4ca <doTickWork()>
C:\Users\ericw\Documents\GitHub\pidog2\attiny84_sketch\pidog2/pidog2.ino:302
            next_tick += MILLIS_PER_TICK;
     f60:	80 91 05 01 	lds	r24, 0x0105	; 0x800105 <next_tick>
     f64:	90 91 06 01 	lds	r25, 0x0106	; 0x800106 <next_tick+0x1>
     f68:	a0 91 07 01 	lds	r26, 0x0107	; 0x800107 <next_tick+0x2>
     f6c:	b0 91 08 01 	lds	r27, 0x0108	; 0x800108 <next_tick+0x3>
     f70:	86 50       	subi	r24, 0x06	; 6
     f72:	9f 4f       	sbci	r25, 0xFF	; 255
     f74:	af 4f       	sbci	r26, 0xFF	; 255
     f76:	bf 4f       	sbci	r27, 0xFF	; 255
     f78:	80 93 05 01 	sts	0x0105, r24	; 0x800105 <next_tick>
     f7c:	90 93 06 01 	sts	0x0106, r25	; 0x800106 <next_tick+0x1>
     f80:	a0 93 07 01 	sts	0x0107, r26	; 0x800107 <next_tick+0x2>
     f84:	b0 93 08 01 	sts	0x0108, r27	; 0x800108 <next_tick+0x3>
C:\Users\ericw\Documents\GitHub\pidog2\attiny84_sketch\pidog2/pidog2.ino:304
        }
        delay(MILLIS_PER_TICK / 10);
     f88:	69 e1       	ldi	r22, 0x19	; 25
     f8a:	70 e0       	ldi	r23, 0x00	; 0
     f8c:	80 e0       	ldi	r24, 0x00	; 0
     f8e:	90 e0       	ldi	r25, 0x00	; 0
     f90:	b9 d9       	rcall	.-3214   	; 0x304 <delay>
     f92:	ae cf       	rjmp	.-164    	; 0xef0 <main+0x1b2>

00000f94 <_GLOBAL__sub_I_vhits>:
_GLOBAL__sub_I_vhits():
C:\Users\ericw\Documents\GitHub\pidog2\attiny84_sketch\pidog2/pidog2.ino:309
    }
}


ISR(BADISR_vect)  { }
     f94:	cf 93       	push	r28
     f96:	df 93       	push	r29
_ZN5PrintC2Ev():
C:\Users\ericw\AppData\Local\Arduino15\packages\ATTinyCore\hardware\avr\1.4.1\cores\tiny/Print.h:75
    size_t printNumber(unsigned long, uint8_t);
    size_t printFloat(double, uint8_t);
  protected:
    void setWriteError(int err = 1) { write_error = err; }
  public:
    Print() : write_error(0) {}
     f98:	cf ee       	ldi	r28, 0xEF	; 239
     f9a:	d0 e0       	ldi	r29, 0x00	; 0
     f9c:	1b 82       	std	Y+3, r1	; 0x03
     f9e:	1a 82       	std	Y+2, r1	; 0x02
_ZN6StreamC2Ev():
C:\Users\ericw\AppData\Local\Arduino15\packages\ATTinyCore\hardware\avr\1.4.1\cores\tiny/Stream.h:64
    virtual int available() = 0;
    virtual int read() = 0;
    virtual int peek() = 0;
    virtual void flush() = 0;

    Stream() {_timeout=1000;}
     fa0:	88 ee       	ldi	r24, 0xE8	; 232
     fa2:	93 e0       	ldi	r25, 0x03	; 3
     fa4:	a0 e0       	ldi	r26, 0x00	; 0
     fa6:	b0 e0       	ldi	r27, 0x00	; 0
     fa8:	8c 83       	std	Y+4, r24	; 0x04
     faa:	9d 83       	std	Y+5, r25	; 0x05
     fac:	ae 83       	std	Y+6, r26	; 0x06
     fae:	bf 83       	std	Y+7, r27	; 0x07
__base_ctor ():
C:\Users\ericw\AppData\Local\Temp\arduino_build_985276\sketch/SoftwareSerial_tx.cpp:75
//
// Constructor
//
SoftwareSerialTX::SoftwareSerialTX(uint8_t transmitPin, bool inverse_logic /* = false */) : 
  _tx_delay(0),
  _inverse_logic(inverse_logic)
     fb0:	84 e6       	ldi	r24, 0x64	; 100
     fb2:	90 e0       	ldi	r25, 0x00	; 0
     fb4:	99 83       	std	Y+1, r25	; 0x01
     fb6:	88 83       	st	Y, r24
     fb8:	18 8a       	std	Y+16, r1	; 0x10
     fba:	1f 86       	std	Y+15, r1	; 0x0f
     fbc:	e0 e0       	ldi	r30, 0x00	; 0
     fbe:	f1 e0       	ldi	r31, 0x01	; 1
     fc0:	60 81       	ld	r22, Z
     fc2:	6e 7f       	andi	r22, 0xFE	; 254
     fc4:	60 83       	st	Z, r22
setTX():
C:\Users\ericw\AppData\Local\Temp\arduino_build_985276\sketch/SoftwareSerial_tx.cpp:94
{
  // First write, then set output. If we do this the other way around,
  // the pin would be output low for a short while before switching to
  // output hihg. Now, it is input with pullup for a short while, which
  // is fine. With inverse logic, either order is fine.
  digitalWrite(tx, _inverse_logic ? LOW : HIGH);
     fc6:	60 95       	com	r22
     fc8:	61 70       	andi	r22, 0x01	; 1
     fca:	81 e0       	ldi	r24, 0x01	; 1
     fcc:	fa d8       	rcall	.-3596   	; 0x1c2 <digitalWrite>
C:\Users\ericw\AppData\Local\Temp\arduino_build_985276\sketch/SoftwareSerial_tx.cpp:95
  pinMode(tx, OUTPUT);
     fce:	61 e0       	ldi	r22, 0x01	; 1
     fd0:	81 e0       	ldi	r24, 0x01	; 1
     fd2:	32 d9       	rcall	.-3484   	; 0x238 <pinMode>
C:\Users\ericw\AppData\Local\Temp\arduino_build_985276\sketch/SoftwareSerial_tx.cpp:96
  _transmitBitMask = digitalPinToBitMask(tx);
     fd4:	ee e4       	ldi	r30, 0x4E	; 78
     fd6:	f0 e0       	ldi	r31, 0x00	; 0
     fd8:	e4 91       	lpm	r30, Z
     fda:	ec 87       	std	Y+12, r30	; 0x0c
C:\Users\ericw\AppData\Local\Temp\arduino_build_985276\sketch/SoftwareSerial_tx.cpp:97
  uint8_t port = digitalPinToPort(tx);
     fdc:	e2 e4       	ldi	r30, 0x42	; 66
     fde:	f0 e0       	ldi	r31, 0x00	; 0
     fe0:	e4 91       	lpm	r30, Z
C:\Users\ericw\AppData\Local\Temp\arduino_build_985276\sketch/SoftwareSerial_tx.cpp:98
  _transmitPortRegister = portOutputRegister(port);
     fe2:	f0 e0       	ldi	r31, 0x00	; 0
     fe4:	ee 0f       	add	r30, r30
     fe6:	ff 1f       	adc	r31, r31
     fe8:	e8 5d       	subi	r30, 0xD8	; 216
     fea:	ff 4f       	sbci	r31, 0xFF	; 255
     fec:	85 91       	lpm	r24, Z+
     fee:	94 91       	lpm	r25, Z
     ff0:	9e 87       	std	Y+14, r25	; 0x0e
     ff2:	8d 87       	std	Y+13, r24	; 0x0d
_ZN9regfile_cImLj14EEC2Ev():
C:\Users\ericw\AppData\Local\Temp\arduino_build_985276\sketch/regfile.h:34
            }
        }

    public:
        regfile_c() {
          ser = 0;
     ff4:	a9 e0       	ldi	r26, 0x09	; 9
     ff6:	b1 e0       	ldi	r27, 0x01	; 1
     ff8:	d9 96       	adiw	r26, 0x39	; 57
     ffa:	1c 92       	st	X, r1
     ffc:	1e 92       	st	-X, r1
     ffe:	d8 97       	sbiw	r26, 0x38	; 56
_ZN11adcReader_cI9regfile_cImLj14EELh1ELh16EEC2ERS1_():
C:\Users\ericw\AppData\Local\Temp\arduino_build_985276\sketch/adcReader.h:20
        ema_c <uint16_t, uint32_t, EMA_ALPHA, EMA_DENOM> avg_vcc_sw;
        ema_c <uint16_t, uint32_t, EMA_ALPHA, EMA_DENOM> avg_vcc33;
        ema_c <uint16_t, uint32_t, EMA_ALPHA, EMA_DENOM> avg_vbat;
        ema_c <uint16_t, uint32_t, EMA_ALPHA, EMA_DENOM> avg_temp;
    public:
        adcReader_c(RF_TYPE &irf) : next(0), rf(irf) { };
    1000:	e2 ed       	ldi	r30, 0xD2	; 210
    1002:	f0 e0       	ldi	r31, 0x00	; 0
    1004:	10 82       	st	Z, r1
    1006:	b2 83       	std	Z+2, r27	; 0x02
    1008:	a1 83       	std	Z+1, r26	; 0x01
_GLOBAL__sub_I_vhits():
C:\Users\ericw\Documents\GitHub\pidog2\attiny84_sketch\pidog2/pidog2.ino:309
    100a:	df 91       	pop	r29
    100c:	cf 91       	pop	r28
    100e:	08 95       	ret

00001010 <__udivmodqi4>:
__udivmodqi4():
/home/jenkins-mingw32/workspace/avr-gcc-staging/label/Ubuntu14.04x64-mingw32/gcc-build/avr/avr25/libgcc/../../../../gcc/libgcc/config/avr/lib1funcs.S:1346
    1010:	99 1b       	sub	r25, r25
/home/jenkins-mingw32/workspace/avr-gcc-staging/label/Ubuntu14.04x64-mingw32/gcc-build/avr/avr25/libgcc/../../../../gcc/libgcc/config/avr/lib1funcs.S:1347
    1012:	79 e0       	ldi	r23, 0x09	; 9
/home/jenkins-mingw32/workspace/avr-gcc-staging/label/Ubuntu14.04x64-mingw32/gcc-build/avr/avr25/libgcc/../../../../gcc/libgcc/config/avr/lib1funcs.S:1348
    1014:	04 c0       	rjmp	.+8      	; 0x101e <__udivmodqi4_ep>

00001016 <__udivmodqi4_loop>:
/home/jenkins-mingw32/workspace/avr-gcc-staging/label/Ubuntu14.04x64-mingw32/gcc-build/avr/avr25/libgcc/../../../../gcc/libgcc/config/avr/lib1funcs.S:1350
    1016:	99 1f       	adc	r25, r25
/home/jenkins-mingw32/workspace/avr-gcc-staging/label/Ubuntu14.04x64-mingw32/gcc-build/avr/avr25/libgcc/../../../../gcc/libgcc/config/avr/lib1funcs.S:1351
    1018:	96 17       	cp	r25, r22
/home/jenkins-mingw32/workspace/avr-gcc-staging/label/Ubuntu14.04x64-mingw32/gcc-build/avr/avr25/libgcc/../../../../gcc/libgcc/config/avr/lib1funcs.S:1352
    101a:	08 f0       	brcs	.+2      	; 0x101e <__udivmodqi4_ep>
/home/jenkins-mingw32/workspace/avr-gcc-staging/label/Ubuntu14.04x64-mingw32/gcc-build/avr/avr25/libgcc/../../../../gcc/libgcc/config/avr/lib1funcs.S:1353
    101c:	96 1b       	sub	r25, r22

0000101e <__udivmodqi4_ep>:
/home/jenkins-mingw32/workspace/avr-gcc-staging/label/Ubuntu14.04x64-mingw32/gcc-build/avr/avr25/libgcc/../../../../gcc/libgcc/config/avr/lib1funcs.S:1355
    101e:	88 1f       	adc	r24, r24
/home/jenkins-mingw32/workspace/avr-gcc-staging/label/Ubuntu14.04x64-mingw32/gcc-build/avr/avr25/libgcc/../../../../gcc/libgcc/config/avr/lib1funcs.S:1356
    1020:	7a 95       	dec	r23
/home/jenkins-mingw32/workspace/avr-gcc-staging/label/Ubuntu14.04x64-mingw32/gcc-build/avr/avr25/libgcc/../../../../gcc/libgcc/config/avr/lib1funcs.S:1357
    1022:	c9 f7       	brne	.-14     	; 0x1016 <__udivmodqi4_loop>
/home/jenkins-mingw32/workspace/avr-gcc-staging/label/Ubuntu14.04x64-mingw32/gcc-build/avr/avr25/libgcc/../../../../gcc/libgcc/config/avr/lib1funcs.S:1358
    1024:	80 95       	com	r24
/home/jenkins-mingw32/workspace/avr-gcc-staging/label/Ubuntu14.04x64-mingw32/gcc-build/avr/avr25/libgcc/../../../../gcc/libgcc/config/avr/lib1funcs.S:1360
    1026:	08 95       	ret

00001028 <__udivmodsi4>:
__udivmodsi4():
/home/jenkins-mingw32/workspace/avr-gcc-staging/label/Ubuntu14.04x64-mingw32/gcc-build/avr/avr25/libgcc/../../../../gcc/libgcc/config/avr/lib1funcs.S:1638
    1028:	a1 e2       	ldi	r26, 0x21	; 33
/home/jenkins-mingw32/workspace/avr-gcc-staging/label/Ubuntu14.04x64-mingw32/gcc-build/avr/avr25/libgcc/../../../../gcc/libgcc/config/avr/lib1funcs.S:1639
    102a:	1a 2e       	mov	r1, r26
/home/jenkins-mingw32/workspace/avr-gcc-staging/label/Ubuntu14.04x64-mingw32/gcc-build/avr/avr25/libgcc/../../../../gcc/libgcc/config/avr/lib1funcs.S:1640
    102c:	aa 1b       	sub	r26, r26
/home/jenkins-mingw32/workspace/avr-gcc-staging/label/Ubuntu14.04x64-mingw32/gcc-build/avr/avr25/libgcc/../../../../gcc/libgcc/config/avr/lib1funcs.S:1641
    102e:	bb 1b       	sub	r27, r27
/home/jenkins-mingw32/workspace/avr-gcc-staging/label/Ubuntu14.04x64-mingw32/gcc-build/avr/avr25/libgcc/../../../../gcc/libgcc/config/avr/lib1funcs.S:1642
    1030:	fd 01       	movw	r30, r26
/home/jenkins-mingw32/workspace/avr-gcc-staging/label/Ubuntu14.04x64-mingw32/gcc-build/avr/avr25/libgcc/../../../../gcc/libgcc/config/avr/lib1funcs.S:1644
    1032:	0d c0       	rjmp	.+26     	; 0x104e <__udivmodsi4_ep>

00001034 <__udivmodsi4_loop>:
/home/jenkins-mingw32/workspace/avr-gcc-staging/label/Ubuntu14.04x64-mingw32/gcc-build/avr/avr25/libgcc/../../../../gcc/libgcc/config/avr/lib1funcs.S:1646
    1034:	aa 1f       	adc	r26, r26
/home/jenkins-mingw32/workspace/avr-gcc-staging/label/Ubuntu14.04x64-mingw32/gcc-build/avr/avr25/libgcc/../../../../gcc/libgcc/config/avr/lib1funcs.S:1647
    1036:	bb 1f       	adc	r27, r27
/home/jenkins-mingw32/workspace/avr-gcc-staging/label/Ubuntu14.04x64-mingw32/gcc-build/avr/avr25/libgcc/../../../../gcc/libgcc/config/avr/lib1funcs.S:1648
    1038:	ee 1f       	adc	r30, r30
/home/jenkins-mingw32/workspace/avr-gcc-staging/label/Ubuntu14.04x64-mingw32/gcc-build/avr/avr25/libgcc/../../../../gcc/libgcc/config/avr/lib1funcs.S:1649
    103a:	ff 1f       	adc	r31, r31
/home/jenkins-mingw32/workspace/avr-gcc-staging/label/Ubuntu14.04x64-mingw32/gcc-build/avr/avr25/libgcc/../../../../gcc/libgcc/config/avr/lib1funcs.S:1650
    103c:	a2 17       	cp	r26, r18
/home/jenkins-mingw32/workspace/avr-gcc-staging/label/Ubuntu14.04x64-mingw32/gcc-build/avr/avr25/libgcc/../../../../gcc/libgcc/config/avr/lib1funcs.S:1651
    103e:	b3 07       	cpc	r27, r19
/home/jenkins-mingw32/workspace/avr-gcc-staging/label/Ubuntu14.04x64-mingw32/gcc-build/avr/avr25/libgcc/../../../../gcc/libgcc/config/avr/lib1funcs.S:1652
    1040:	e4 07       	cpc	r30, r20
/home/jenkins-mingw32/workspace/avr-gcc-staging/label/Ubuntu14.04x64-mingw32/gcc-build/avr/avr25/libgcc/../../../../gcc/libgcc/config/avr/lib1funcs.S:1653
    1042:	f5 07       	cpc	r31, r21
/home/jenkins-mingw32/workspace/avr-gcc-staging/label/Ubuntu14.04x64-mingw32/gcc-build/avr/avr25/libgcc/../../../../gcc/libgcc/config/avr/lib1funcs.S:1654
    1044:	20 f0       	brcs	.+8      	; 0x104e <__udivmodsi4_ep>
/home/jenkins-mingw32/workspace/avr-gcc-staging/label/Ubuntu14.04x64-mingw32/gcc-build/avr/avr25/libgcc/../../../../gcc/libgcc/config/avr/lib1funcs.S:1655
    1046:	a2 1b       	sub	r26, r18
/home/jenkins-mingw32/workspace/avr-gcc-staging/label/Ubuntu14.04x64-mingw32/gcc-build/avr/avr25/libgcc/../../../../gcc/libgcc/config/avr/lib1funcs.S:1656
    1048:	b3 0b       	sbc	r27, r19
/home/jenkins-mingw32/workspace/avr-gcc-staging/label/Ubuntu14.04x64-mingw32/gcc-build/avr/avr25/libgcc/../../../../gcc/libgcc/config/avr/lib1funcs.S:1657
    104a:	e4 0b       	sbc	r30, r20
/home/jenkins-mingw32/workspace/avr-gcc-staging/label/Ubuntu14.04x64-mingw32/gcc-build/avr/avr25/libgcc/../../../../gcc/libgcc/config/avr/lib1funcs.S:1658
    104c:	f5 0b       	sbc	r31, r21

0000104e <__udivmodsi4_ep>:
/home/jenkins-mingw32/workspace/avr-gcc-staging/label/Ubuntu14.04x64-mingw32/gcc-build/avr/avr25/libgcc/../../../../gcc/libgcc/config/avr/lib1funcs.S:1660
    104e:	66 1f       	adc	r22, r22
/home/jenkins-mingw32/workspace/avr-gcc-staging/label/Ubuntu14.04x64-mingw32/gcc-build/avr/avr25/libgcc/../../../../gcc/libgcc/config/avr/lib1funcs.S:1661
    1050:	77 1f       	adc	r23, r23
/home/jenkins-mingw32/workspace/avr-gcc-staging/label/Ubuntu14.04x64-mingw32/gcc-build/avr/avr25/libgcc/../../../../gcc/libgcc/config/avr/lib1funcs.S:1662
    1052:	88 1f       	adc	r24, r24
/home/jenkins-mingw32/workspace/avr-gcc-staging/label/Ubuntu14.04x64-mingw32/gcc-build/avr/avr25/libgcc/../../../../gcc/libgcc/config/avr/lib1funcs.S:1663
    1054:	99 1f       	adc	r25, r25
/home/jenkins-mingw32/workspace/avr-gcc-staging/label/Ubuntu14.04x64-mingw32/gcc-build/avr/avr25/libgcc/../../../../gcc/libgcc/config/avr/lib1funcs.S:1664
    1056:	1a 94       	dec	r1
/home/jenkins-mingw32/workspace/avr-gcc-staging/label/Ubuntu14.04x64-mingw32/gcc-build/avr/avr25/libgcc/../../../../gcc/libgcc/config/avr/lib1funcs.S:1665
    1058:	69 f7       	brne	.-38     	; 0x1034 <__udivmodsi4_loop>
/home/jenkins-mingw32/workspace/avr-gcc-staging/label/Ubuntu14.04x64-mingw32/gcc-build/avr/avr25/libgcc/../../../../gcc/libgcc/config/avr/lib1funcs.S:1667
    105a:	60 95       	com	r22
/home/jenkins-mingw32/workspace/avr-gcc-staging/label/Ubuntu14.04x64-mingw32/gcc-build/avr/avr25/libgcc/../../../../gcc/libgcc/config/avr/lib1funcs.S:1668
    105c:	70 95       	com	r23
/home/jenkins-mingw32/workspace/avr-gcc-staging/label/Ubuntu14.04x64-mingw32/gcc-build/avr/avr25/libgcc/../../../../gcc/libgcc/config/avr/lib1funcs.S:1669
    105e:	80 95       	com	r24
/home/jenkins-mingw32/workspace/avr-gcc-staging/label/Ubuntu14.04x64-mingw32/gcc-build/avr/avr25/libgcc/../../../../gcc/libgcc/config/avr/lib1funcs.S:1670
    1060:	90 95       	com	r25
/home/jenkins-mingw32/workspace/avr-gcc-staging/label/Ubuntu14.04x64-mingw32/gcc-build/avr/avr25/libgcc/../../../../gcc/libgcc/config/avr/lib1funcs.S:1672
    1062:	9b 01       	movw	r18, r22
/home/jenkins-mingw32/workspace/avr-gcc-staging/label/Ubuntu14.04x64-mingw32/gcc-build/avr/avr25/libgcc/../../../../gcc/libgcc/config/avr/lib1funcs.S:1674
    1064:	ac 01       	movw	r20, r24
/home/jenkins-mingw32/workspace/avr-gcc-staging/label/Ubuntu14.04x64-mingw32/gcc-build/avr/avr25/libgcc/../../../../gcc/libgcc/config/avr/lib1funcs.S:1676
    1066:	bd 01       	movw	r22, r26
/home/jenkins-mingw32/workspace/avr-gcc-staging/label/Ubuntu14.04x64-mingw32/gcc-build/avr/avr25/libgcc/../../../../gcc/libgcc/config/avr/lib1funcs.S:1678
    1068:	cf 01       	movw	r24, r30
/home/jenkins-mingw32/workspace/avr-gcc-staging/label/Ubuntu14.04x64-mingw32/gcc-build/avr/avr25/libgcc/../../../../gcc/libgcc/config/avr/lib1funcs.S:1680
    106a:	08 95       	ret

0000106c <__tablejump2__>:
__tablejump2__():
/home/jenkins-mingw32/workspace/avr-gcc-staging/label/Ubuntu14.04x64-mingw32/gcc-build/avr/avr25/libgcc/../../../../gcc/libgcc/config/avr/lib1funcs.S:2296
    106c:	ee 0f       	add	r30, r30
/home/jenkins-mingw32/workspace/avr-gcc-staging/label/Ubuntu14.04x64-mingw32/gcc-build/avr/avr25/libgcc/../../../../gcc/libgcc/config/avr/lib1funcs.S:2297
    106e:	ff 1f       	adc	r31, r31
/home/jenkins-mingw32/workspace/avr-gcc-staging/label/Ubuntu14.04x64-mingw32/gcc-build/avr/avr25/libgcc/../../../../gcc/libgcc/config/avr/lib1funcs.S:2328
    1070:	05 90       	lpm	r0, Z+
/home/jenkins-mingw32/workspace/avr-gcc-staging/label/Ubuntu14.04x64-mingw32/gcc-build/avr/avr25/libgcc/../../../../gcc/libgcc/config/avr/lib1funcs.S:2329
    1072:	f4 91       	lpm	r31, Z
/home/jenkins-mingw32/workspace/avr-gcc-staging/label/Ubuntu14.04x64-mingw32/gcc-build/avr/avr25/libgcc/../../../../gcc/libgcc/config/avr/lib1funcs.S:2330
    1074:	e0 2d       	mov	r30, r0
/home/jenkins-mingw32/workspace/avr-gcc-staging/label/Ubuntu14.04x64-mingw32/gcc-build/avr/avr25/libgcc/../../../../gcc/libgcc/config/avr/lib1funcs.S:2331
    1076:	09 94       	ijmp

00001078 <_exit>:
exit():
/home/jenkins-mingw32/workspace/avr-gcc-staging/label/Ubuntu14.04x64-mingw32/gcc-build/avr/avr25/libgcc/../../../../gcc/libgcc/config/avr/lib1funcs.S:2278
    1078:	f8 94       	cli

0000107a <__stop_program>:
__stop_program():
/home/jenkins-mingw32/workspace/avr-gcc-staging/label/Ubuntu14.04x64-mingw32/gcc-build/avr/avr25/libgcc/../../../../gcc/libgcc/config/avr/lib1funcs.S:2280
    107a:	ff cf       	rjmp	.-2      	; 0x107a <__stop_program>
